
Node_1.elf:     file format elf32-avr

Sections:
Idx Name          Size      VMA       LMA       File off  Algn
  0 .data         000001ac  00800100  00001994  00001a28  2**0
                  CONTENTS, ALLOC, LOAD, DATA
  1 .text         00001994  00000000  00000000  00000094  2**1
                  CONTENTS, ALLOC, LOAD, READONLY, CODE
  2 .bss          0000001c  008002ac  008002ac  00001bd4  2**0
                  ALLOC
  3 .comment      0000005c  00000000  00000000  00001bd4  2**0
                  CONTENTS, READONLY
  4 .note.gnu.avr.deviceinfo 0000003c  00000000  00000000  00001c30  2**2
                  CONTENTS, READONLY
  5 .debug_aranges 00000220  00000000  00000000  00001c6c  2**0
                  CONTENTS, READONLY, DEBUGGING
  6 .debug_info   00002c0d  00000000  00000000  00001e8c  2**0
                  CONTENTS, READONLY, DEBUGGING
  7 .debug_abbrev 0000115a  00000000  00000000  00004a99  2**0
                  CONTENTS, READONLY, DEBUGGING
  8 .debug_line   000012cd  00000000  00000000  00005bf3  2**0
                  CONTENTS, READONLY, DEBUGGING
  9 .debug_frame  00000564  00000000  00000000  00006ec0  2**2
                  CONTENTS, READONLY, DEBUGGING
 10 .debug_str    000008b9  00000000  00000000  00007424  2**0
                  CONTENTS, READONLY, DEBUGGING
 11 .debug_loc    00001384  00000000  00000000  00007cdd  2**0
                  CONTENTS, READONLY, DEBUGGING
 12 .debug_ranges 00000278  00000000  00000000  00009061  2**0
                  CONTENTS, READONLY, DEBUGGING

Disassembly of section .text:

00000000 <__vectors>:
       0:	0c 94 26 01 	jmp	0x24c	; 0x24c <__ctors_end>
       4:	0c 94 43 01 	jmp	0x286	; 0x286 <__bad_interrupt>
       8:	0c 94 43 01 	jmp	0x286	; 0x286 <__bad_interrupt>
       c:	0c 94 43 01 	jmp	0x286	; 0x286 <__bad_interrupt>
      10:	0c 94 43 01 	jmp	0x286	; 0x286 <__bad_interrupt>
      14:	0c 94 43 01 	jmp	0x286	; 0x286 <__bad_interrupt>
      18:	0c 94 43 01 	jmp	0x286	; 0x286 <__bad_interrupt>
      1c:	0c 94 43 01 	jmp	0x286	; 0x286 <__bad_interrupt>
      20:	0c 94 43 01 	jmp	0x286	; 0x286 <__bad_interrupt>
      24:	0c 94 43 01 	jmp	0x286	; 0x286 <__bad_interrupt>
      28:	0c 94 43 01 	jmp	0x286	; 0x286 <__bad_interrupt>
      2c:	0c 94 43 01 	jmp	0x286	; 0x286 <__bad_interrupt>
      30:	0c 94 43 01 	jmp	0x286	; 0x286 <__bad_interrupt>
      34:	0c 94 43 01 	jmp	0x286	; 0x286 <__bad_interrupt>
      38:	0c 94 43 01 	jmp	0x286	; 0x286 <__bad_interrupt>
      3c:	0c 94 43 01 	jmp	0x286	; 0x286 <__bad_interrupt>
      40:	0c 94 43 01 	jmp	0x286	; 0x286 <__bad_interrupt>
      44:	0c 94 43 01 	jmp	0x286	; 0x286 <__bad_interrupt>
      48:	0c 94 43 01 	jmp	0x286	; 0x286 <__bad_interrupt>
      4c:	0c 94 43 01 	jmp	0x286	; 0x286 <__bad_interrupt>
      50:	0c 94 43 01 	jmp	0x286	; 0x286 <__bad_interrupt>
      54:	0c 94 43 01 	jmp	0x286	; 0x286 <__bad_interrupt>
      58:	0c 94 43 01 	jmp	0x286	; 0x286 <__bad_interrupt>
      5c:	0c 94 43 01 	jmp	0x286	; 0x286 <__bad_interrupt>
      60:	0c 94 43 01 	jmp	0x286	; 0x286 <__bad_interrupt>
      64:	0c 94 43 01 	jmp	0x286	; 0x286 <__bad_interrupt>
      68:	0c 94 43 01 	jmp	0x286	; 0x286 <__bad_interrupt>
      6c:	0c 94 43 01 	jmp	0x286	; 0x286 <__bad_interrupt>

00000070 <__trampolines_end>:
      70:	00 00       	nop
      72:	00 00       	nop
      74:	00 00       	nop
      76:	00 5f       	subi	r16, 0xF0	; 240
      78:	00 00       	nop
      7a:	00 07       	cpc	r16, r16
      7c:	00 07       	cpc	r16, r16
      7e:	00 14       	cp	r0, r0
      80:	7f 14       	cp	r7, r15
      82:	7f 14       	cp	r7, r15
      84:	24 2a       	or	r2, r20
      86:	7f 2a       	or	r7, r31
      88:	12 23       	and	r17, r18
      8a:	13 08       	sbc	r1, r3
      8c:	64 62       	ori	r22, 0x24	; 36
      8e:	36 49       	sbci	r19, 0x96	; 150
      90:	55 22       	and	r5, r21
      92:	50 00       	.word	0x0050	; ????
      94:	05 03       	mulsu	r16, r21
      96:	00 00       	nop
      98:	00 1c       	adc	r0, r0
      9a:	22 41       	sbci	r18, 0x12	; 18
      9c:	00 00       	nop
      9e:	41 22       	and	r4, r17
      a0:	1c 00       	.word	0x001c	; ????
      a2:	08 2a       	or	r0, r24
      a4:	1c 2a       	or	r1, r28
      a6:	08 08       	sbc	r0, r8
      a8:	08 3e       	cpi	r16, 0xE8	; 232
      aa:	08 08       	sbc	r0, r8
      ac:	00 50       	subi	r16, 0x00	; 0
      ae:	30 00       	.word	0x0030	; ????
      b0:	00 08       	sbc	r0, r0
      b2:	08 08       	sbc	r0, r8
      b4:	08 08       	sbc	r0, r8
      b6:	00 60       	ori	r16, 0x00	; 0
      b8:	60 00       	.word	0x0060	; ????
      ba:	00 20       	and	r0, r0
      bc:	10 08       	sbc	r1, r0
      be:	04 02       	muls	r16, r20
      c0:	3e 51       	subi	r19, 0x1E	; 30
      c2:	49 45       	sbci	r20, 0x59	; 89
      c4:	3e 00       	.word	0x003e	; ????
      c6:	42 7f       	andi	r20, 0xF2	; 242
      c8:	40 00       	.word	0x0040	; ????
      ca:	42 61       	ori	r20, 0x12	; 18
      cc:	51 49       	sbci	r21, 0x91	; 145
      ce:	46 21       	and	r20, r6
      d0:	41 45       	sbci	r20, 0x51	; 81
      d2:	4b 31       	cpi	r20, 0x1B	; 27
      d4:	18 14       	cp	r1, r8
      d6:	12 7f       	andi	r17, 0xF2	; 242
      d8:	10 27       	eor	r17, r16
      da:	45 45       	sbci	r20, 0x55	; 85
      dc:	45 39       	cpi	r20, 0x95	; 149
      de:	3c 4a       	sbci	r19, 0xAC	; 172
      e0:	49 49       	sbci	r20, 0x99	; 153
      e2:	30 01       	movw	r6, r0
      e4:	71 09       	sbc	r23, r1
      e6:	05 03       	mulsu	r16, r21
      e8:	36 49       	sbci	r19, 0x96	; 150
      ea:	49 49       	sbci	r20, 0x99	; 153
      ec:	36 06       	cpc	r3, r22
      ee:	49 49       	sbci	r20, 0x99	; 153
      f0:	29 1e       	adc	r2, r25
      f2:	00 36       	cpi	r16, 0x60	; 96
      f4:	36 00       	.word	0x0036	; ????
      f6:	00 00       	nop
      f8:	56 36       	cpi	r21, 0x66	; 102
      fa:	00 00       	nop
      fc:	00 08       	sbc	r0, r0
      fe:	14 22       	and	r1, r20
     100:	41 14       	cp	r4, r1
     102:	14 14       	cp	r1, r4
     104:	14 14       	cp	r1, r4
     106:	41 22       	and	r4, r17
     108:	14 08       	sbc	r1, r4
     10a:	00 02       	muls	r16, r16
     10c:	01 51       	subi	r16, 0x11	; 17
     10e:	09 06       	cpc	r0, r25
     110:	32 49       	sbci	r19, 0x92	; 146
     112:	79 41       	sbci	r23, 0x19	; 25
     114:	3e 7e       	andi	r19, 0xEE	; 238
     116:	11 11       	cpse	r17, r1
     118:	11 7e       	andi	r17, 0xE1	; 225
     11a:	7f 49       	sbci	r23, 0x9F	; 159
     11c:	49 49       	sbci	r20, 0x99	; 153
     11e:	36 3e       	cpi	r19, 0xE6	; 230
     120:	41 41       	sbci	r20, 0x11	; 17
     122:	41 22       	and	r4, r17
     124:	7f 41       	sbci	r23, 0x1F	; 31
     126:	41 22       	and	r4, r17
     128:	1c 7f       	andi	r17, 0xFC	; 252
     12a:	49 49       	sbci	r20, 0x99	; 153
     12c:	49 41       	sbci	r20, 0x19	; 25
     12e:	7f 09       	sbc	r23, r15
     130:	09 01       	movw	r0, r18
     132:	01 3e       	cpi	r16, 0xE1	; 225
     134:	41 41       	sbci	r20, 0x11	; 17
     136:	51 32       	cpi	r21, 0x21	; 33
     138:	7f 08       	sbc	r7, r15
     13a:	08 08       	sbc	r0, r8
     13c:	7f 00       	.word	0x007f	; ????
     13e:	41 7f       	andi	r20, 0xF1	; 241
     140:	41 00       	.word	0x0041	; ????
     142:	20 40       	sbci	r18, 0x00	; 0
     144:	41 3f       	cpi	r20, 0xF1	; 241
     146:	01 7f       	andi	r16, 0xF1	; 241
     148:	08 14       	cp	r0, r8
     14a:	22 41       	sbci	r18, 0x12	; 18
     14c:	7f 40       	sbci	r23, 0x0F	; 15
     14e:	40 40       	sbci	r20, 0x00	; 0
     150:	40 7f       	andi	r20, 0xF0	; 240
     152:	02 04       	cpc	r0, r2
     154:	02 7f       	andi	r16, 0xF2	; 242
     156:	7f 04       	cpc	r7, r15
     158:	08 10       	cpse	r0, r8
     15a:	7f 3e       	cpi	r23, 0xEF	; 239
     15c:	41 41       	sbci	r20, 0x11	; 17
     15e:	41 3e       	cpi	r20, 0xE1	; 225
     160:	7f 09       	sbc	r23, r15
     162:	09 09       	sbc	r16, r9
     164:	06 3e       	cpi	r16, 0xE6	; 230
     166:	41 51       	subi	r20, 0x11	; 17
     168:	21 5e       	subi	r18, 0xE1	; 225
     16a:	7f 09       	sbc	r23, r15
     16c:	19 29       	or	r17, r9
     16e:	46 46       	sbci	r20, 0x66	; 102
     170:	49 49       	sbci	r20, 0x99	; 153
     172:	49 31       	cpi	r20, 0x19	; 25
     174:	01 01       	movw	r0, r2
     176:	7f 01       	movw	r14, r30
     178:	01 3f       	cpi	r16, 0xF1	; 241
     17a:	40 40       	sbci	r20, 0x00	; 0
     17c:	40 3f       	cpi	r20, 0xF0	; 240
     17e:	1f 20       	and	r1, r15
     180:	40 20       	and	r4, r0
     182:	1f 7f       	andi	r17, 0xFF	; 255
     184:	20 18       	sub	r2, r0
     186:	20 7f       	andi	r18, 0xF0	; 240
     188:	63 14       	cp	r6, r3
     18a:	08 14       	cp	r0, r8
     18c:	63 03       	mulsu	r22, r19
     18e:	04 78       	andi	r16, 0x84	; 132
     190:	04 03       	mulsu	r16, r20
     192:	61 51       	subi	r22, 0x11	; 17
     194:	49 45       	sbci	r20, 0x59	; 89
     196:	43 00       	.word	0x0043	; ????
     198:	00 7f       	andi	r16, 0xF0	; 240
     19a:	41 41       	sbci	r20, 0x11	; 17
     19c:	02 04       	cpc	r0, r2
     19e:	08 10       	cpse	r0, r8
     1a0:	20 41       	sbci	r18, 0x10	; 16
     1a2:	41 7f       	andi	r20, 0xF1	; 241
     1a4:	00 00       	nop
     1a6:	04 02       	muls	r16, r20
     1a8:	01 02       	muls	r16, r17
     1aa:	04 40       	sbci	r16, 0x04	; 4
     1ac:	40 40       	sbci	r20, 0x00	; 0
     1ae:	40 40       	sbci	r20, 0x00	; 0
     1b0:	00 01       	movw	r0, r0
     1b2:	02 04       	cpc	r0, r2
     1b4:	00 20       	and	r0, r0
     1b6:	54 54       	subi	r21, 0x44	; 68
     1b8:	54 78       	andi	r21, 0x84	; 132
     1ba:	7f 48       	sbci	r23, 0x8F	; 143
     1bc:	44 44       	sbci	r20, 0x44	; 68
     1be:	38 38       	cpi	r19, 0x88	; 136
     1c0:	44 44       	sbci	r20, 0x44	; 68
     1c2:	44 20       	and	r4, r4
     1c4:	38 44       	sbci	r19, 0x48	; 72
     1c6:	44 48       	sbci	r20, 0x84	; 132
     1c8:	7f 38       	cpi	r23, 0x8F	; 143
     1ca:	54 54       	subi	r21, 0x44	; 68
     1cc:	54 18       	sub	r5, r4
     1ce:	08 7e       	andi	r16, 0xE8	; 232
     1d0:	09 01       	movw	r0, r18
     1d2:	02 08       	sbc	r0, r2
     1d4:	14 54       	subi	r17, 0x44	; 68
     1d6:	54 3c       	cpi	r21, 0xC4	; 196
     1d8:	7f 08       	sbc	r7, r15
     1da:	04 04       	cpc	r0, r4
     1dc:	78 00       	.word	0x0078	; ????
     1de:	44 7d       	andi	r20, 0xD4	; 212
     1e0:	40 00       	.word	0x0040	; ????
     1e2:	20 40       	sbci	r18, 0x00	; 0
     1e4:	44 3d       	cpi	r20, 0xD4	; 212
     1e6:	00 00       	nop
     1e8:	7f 10       	cpse	r7, r15
     1ea:	28 44       	sbci	r18, 0x48	; 72
     1ec:	00 41       	sbci	r16, 0x10	; 16
     1ee:	7f 40       	sbci	r23, 0x0F	; 15
     1f0:	00 7c       	andi	r16, 0xC0	; 192
     1f2:	04 18       	sub	r0, r4
     1f4:	04 78       	andi	r16, 0x84	; 132
     1f6:	7c 08       	sbc	r7, r12
     1f8:	04 04       	cpc	r0, r4
     1fa:	78 38       	cpi	r23, 0x88	; 136
     1fc:	44 44       	sbci	r20, 0x44	; 68
     1fe:	44 38       	cpi	r20, 0x84	; 132
     200:	7c 14       	cp	r7, r12
     202:	14 14       	cp	r1, r4
     204:	08 08       	sbc	r0, r8
     206:	14 14       	cp	r1, r4
     208:	18 7c       	andi	r17, 0xC8	; 200
     20a:	7c 08       	sbc	r7, r12
     20c:	04 04       	cpc	r0, r4
     20e:	08 48       	sbci	r16, 0x88	; 136
     210:	54 54       	subi	r21, 0x44	; 68
     212:	54 20       	and	r5, r4
     214:	04 3f       	cpi	r16, 0xF4	; 244
     216:	44 40       	sbci	r20, 0x04	; 4
     218:	20 3c       	cpi	r18, 0xC0	; 192
     21a:	40 40       	sbci	r20, 0x00	; 0
     21c:	20 7c       	andi	r18, 0xC0	; 192
     21e:	1c 20       	and	r1, r12
     220:	40 20       	and	r4, r0
     222:	1c 3c       	cpi	r17, 0xCC	; 204
     224:	40 30       	cpi	r20, 0x00	; 0
     226:	40 3c       	cpi	r20, 0xC0	; 192
     228:	44 28       	or	r4, r4
     22a:	10 28       	or	r1, r0
     22c:	44 0c       	add	r4, r4
     22e:	50 50       	subi	r21, 0x00	; 0
     230:	50 3c       	cpi	r21, 0xC0	; 192
     232:	44 64       	ori	r20, 0x44	; 68
     234:	54 4c       	sbci	r21, 0xC4	; 196
     236:	44 00       	.word	0x0044	; ????
     238:	08 36       	cpi	r16, 0x68	; 104
     23a:	41 00       	.word	0x0041	; ????
     23c:	00 00       	nop
     23e:	7f 00       	.word	0x007f	; ????
     240:	00 00       	nop
     242:	41 36       	cpi	r20, 0x61	; 97
     244:	08 00       	.word	0x0008	; ????
     246:	02 01       	movw	r0, r4
     248:	03 02       	muls	r16, r19
     24a:	01 00       	.word	0x0001	; ????

0000024c <__ctors_end>:
     24c:	11 24       	eor	r1, r1
     24e:	1f be       	out	0x3f, r1	; 63
     250:	cf ef       	ldi	r28, 0xFF	; 255
     252:	d4 e0       	ldi	r29, 0x04	; 4
     254:	de bf       	out	0x3e, r29	; 62
     256:	cd bf       	out	0x3d, r28	; 61

00000258 <__do_copy_data>:
     258:	12 e0       	ldi	r17, 0x02	; 2
     25a:	a0 e0       	ldi	r26, 0x00	; 0
     25c:	b1 e0       	ldi	r27, 0x01	; 1
     25e:	e4 e9       	ldi	r30, 0x94	; 148
     260:	f9 e1       	ldi	r31, 0x19	; 25
     262:	02 c0       	rjmp	.+4      	; 0x268 <__do_copy_data+0x10>
     264:	05 90       	lpm	r0, Z+
     266:	0d 92       	st	X+, r0
     268:	ac 3a       	cpi	r26, 0xAC	; 172
     26a:	b1 07       	cpc	r27, r17
     26c:	d9 f7       	brne	.-10     	; 0x264 <__do_copy_data+0xc>

0000026e <__do_clear_bss>:
     26e:	22 e0       	ldi	r18, 0x02	; 2
     270:	ac ea       	ldi	r26, 0xAC	; 172
     272:	b2 e0       	ldi	r27, 0x02	; 2
     274:	01 c0       	rjmp	.+2      	; 0x278 <.do_clear_bss_start>

00000276 <.do_clear_bss_loop>:
     276:	1d 92       	st	X+, r1

00000278 <.do_clear_bss_start>:
     278:	a8 3c       	cpi	r26, 0xC8	; 200
     27a:	b2 07       	cpc	r27, r18
     27c:	e1 f7       	brne	.-8      	; 0x276 <.do_clear_bss_loop>
     27e:	0e 94 64 05 	call	0xac8	; 0xac8 <main>
     282:	0c 94 c8 0c 	jmp	0x1990	; 0x1990 <_exit>

00000286 <__bad_interrupt>:
     286:	0c 94 00 00 	jmp	0	; 0x0 <__vectors>

0000028a <ADC_init>:

#include "ADC.h"

void ADC_init(){
	// Set timer/counter0 to PD0 (2.5MHz clock to ADC)
	set_bit(DDRB, PB0); // Set PB0 as output
     28a:	b8 9a       	sbi	0x17, 0	; 23
	set_bit(TCCR0,WGM01); // Set CTC Mode
     28c:	83 b7       	in	r24, 0x33	; 51
     28e:	88 60       	ori	r24, 0x08	; 8
     290:	83 bf       	out	0x33, r24	; 51
	set_bit(TCCR0, COM00); // Toggle on Compare match
     292:	83 b7       	in	r24, 0x33	; 51
     294:	80 61       	ori	r24, 0x10	; 16
     296:	83 bf       	out	0x33, r24	; 51
	set_bit(TCCR0,CS00); // Turn of prescaler 
     298:	83 b7       	in	r24, 0x33	; 51
     29a:	81 60       	ori	r24, 0x01	; 1
     29c:	83 bf       	out	0x33, r24	; 51
	
	// Set initial center value for x and y on joystick
	joy_x_offset = 170;
     29e:	8a ea       	ldi	r24, 0xAA	; 170
     2a0:	80 93 ae 02 	sts	0x02AE, r24	; 0x8002ae <joy_x_offset>
	joy_y_offset = 170;
     2a4:	80 93 b0 02 	sts	0x02B0, r24	; 0x8002b0 <joy_y_offset>
	joy_deadband = 60;
     2a8:	8c e3       	ldi	r24, 0x3C	; 60
     2aa:	80 93 af 02 	sts	0x02AF, r24	; 0x8002af <joy_deadband>
     2ae:	08 95       	ret

000002b0 <ADC_read>:
}	

// Should read current position values for joystick with values from 0-255
ADC_pos ADC_read(){
     2b0:	cf 93       	push	r28
     2b2:	df 93       	push	r29
     2b4:	cd b7       	in	r28, 0x3d	; 61
     2b6:	de b7       	in	r29, 0x3e	; 62
     2b8:	28 97       	sbiw	r28, 0x08	; 8
     2ba:	0f b6       	in	r0, 0x3f	; 63
     2bc:	f8 94       	cli
     2be:	de bf       	out	0x3e, r29	; 62
     2c0:	0f be       	out	0x3f, r0	; 63
     2c2:	cd bf       	out	0x3d, r28	; 61
	ADC_pos return_pos;
	volatile uint8_t *ext_ADC = (uint8_t * ) 0x1400; // Start address for the ADC channels	
	ext_ADC[0] = 0;	
     2c4:	e0 e0       	ldi	r30, 0x00	; 0
     2c6:	f4 e1       	ldi	r31, 0x14	; 20
     2c8:	10 82       	st	Z, r1
	//Parralell bus is set up to wait one cycle  //Bør byttes med while og interrupt flag. (busy sig) vis nødvendig
	return_pos.joy_y = ext_ADC[0];
     2ca:	40 81       	ld	r20, Z
	return_pos.joy_x = ext_ADC[0];
     2cc:	20 81       	ld	r18, Z
	return_pos.slider_left = ext_ADC[0];
     2ce:	60 81       	ld	r22, Z
	return_pos.slider_right = ext_ADC[0];
     2d0:	80 81       	ld	r24, Z
	
	return return_pos;
     2d2:	30 e0       	ldi	r19, 0x00	; 0
     2d4:	3a 83       	std	Y+2, r19	; 0x02
     2d6:	29 83       	std	Y+1, r18	; 0x01
     2d8:	50 e0       	ldi	r21, 0x00	; 0
     2da:	5c 83       	std	Y+4, r21	; 0x04
     2dc:	4b 83       	std	Y+3, r20	; 0x03
     2de:	70 e0       	ldi	r23, 0x00	; 0
     2e0:	7e 83       	std	Y+6, r23	; 0x06
     2e2:	6d 83       	std	Y+5, r22	; 0x05
     2e4:	90 e0       	ldi	r25, 0x00	; 0
     2e6:	98 87       	std	Y+8, r25	; 0x08
     2e8:	8f 83       	std	Y+7, r24	; 0x07
     2ea:	3a 81       	ldd	r19, Y+2	; 0x02
     2ec:	5c 81       	ldd	r21, Y+4	; 0x04
     2ee:	7e 81       	ldd	r23, Y+6	; 0x06
}
     2f0:	98 85       	ldd	r25, Y+8	; 0x08
     2f2:	28 96       	adiw	r28, 0x08	; 8
     2f4:	0f b6       	in	r0, 0x3f	; 63
     2f6:	f8 94       	cli
     2f8:	de bf       	out	0x3e, r29	; 62
     2fa:	0f be       	out	0x3f, r0	; 63
     2fc:	cd bf       	out	0x3d, r28	; 61
     2fe:	df 91       	pop	r29
     300:	cf 91       	pop	r28
     302:	08 95       	ret

00000304 <joystick_calibrate>:

void joystick_calibrate(){
     304:	8f 92       	push	r8
     306:	9f 92       	push	r9
     308:	af 92       	push	r10
     30a:	bf 92       	push	r11
     30c:	cf 92       	push	r12
     30e:	df 92       	push	r13
     310:	ef 92       	push	r14
     312:	ff 92       	push	r15
     314:	0f 93       	push	r16
     316:	1f 93       	push	r17
     318:	cf 93       	push	r28
     31a:	df 93       	push	r29
     31c:	cd b7       	in	r28, 0x3d	; 61
     31e:	de b7       	in	r29, 0x3e	; 62
     320:	28 97       	sbiw	r28, 0x08	; 8
     322:	0f b6       	in	r0, 0x3f	; 63
     324:	f8 94       	cli
     326:	de bf       	out	0x3e, r29	; 62
     328:	0f be       	out	0x3f, r0	; 63
     32a:	cd bf       	out	0x3d, r28	; 61
	ADC_pos pos = ADC_read(); //Dummy write to stop to prevent OLED interfering with ADC.
     32c:	0e 94 58 01 	call	0x2b0	; 0x2b0 <ADC_read>
     330:	0a e0       	ldi	r16, 0x0A	; 10
     332:	10 e0       	ldi	r17, 0x00	; 0
	double AVG_joy_x;
	double AVG_joy_y;
	
	for(int i = 0; i<10; i++) {	
		pos = ADC_read();
     334:	0e 94 58 01 	call	0x2b0	; 0x2b0 <ADC_read>
     338:	29 83       	std	Y+1, r18	; 0x01
     33a:	3a 83       	std	Y+2, r19	; 0x02
     33c:	4b 83       	std	Y+3, r20	; 0x03
     33e:	5c 83       	std	Y+4, r21	; 0x04
		AVG_joy_x = AVG_joy_x + pos.joy_x; 
     340:	69 81       	ldd	r22, Y+1	; 0x01
     342:	7a 81       	ldd	r23, Y+2	; 0x02
     344:	80 e0       	ldi	r24, 0x00	; 0
     346:	90 e0       	ldi	r25, 0x00	; 0
     348:	0e 94 88 07 	call	0xf10	; 0xf10 <__floatunsisf>
     34c:	9b 01       	movw	r18, r22
     34e:	ac 01       	movw	r20, r24
     350:	c5 01       	movw	r24, r10
     352:	b4 01       	movw	r22, r8
     354:	0e 94 7b 06 	call	0xcf6	; 0xcf6 <__addsf3>
     358:	4b 01       	movw	r8, r22
     35a:	5c 01       	movw	r10, r24
		AVG_joy_y = AVG_joy_y + pos.joy_y;
     35c:	6b 81       	ldd	r22, Y+3	; 0x03
     35e:	7c 81       	ldd	r23, Y+4	; 0x04
     360:	80 e0       	ldi	r24, 0x00	; 0
     362:	90 e0       	ldi	r25, 0x00	; 0
     364:	0e 94 88 07 	call	0xf10	; 0xf10 <__floatunsisf>
     368:	9b 01       	movw	r18, r22
     36a:	ac 01       	movw	r20, r24
     36c:	c7 01       	movw	r24, r14
     36e:	b6 01       	movw	r22, r12
     370:	0e 94 7b 06 	call	0xcf6	; 0xcf6 <__addsf3>
     374:	6b 01       	movw	r12, r22
     376:	7c 01       	movw	r14, r24
     378:	01 50       	subi	r16, 0x01	; 1
     37a:	11 09       	sbc	r17, r1
void joystick_calibrate(){
	ADC_pos pos = ADC_read(); //Dummy write to stop to prevent OLED interfering with ADC.
	double AVG_joy_x;
	double AVG_joy_y;
	
	for(int i = 0; i<10; i++) {	
     37c:	d9 f6       	brne	.-74     	; 0x334 <joystick_calibrate+0x30>
		pos = ADC_read();
		AVG_joy_x = AVG_joy_x + pos.joy_x; 
		AVG_joy_y = AVG_joy_y + pos.joy_y;
	}
	
	joy_x_offset = AVG_joy_x/10;
     37e:	20 e0       	ldi	r18, 0x00	; 0
     380:	30 e0       	ldi	r19, 0x00	; 0
     382:	40 e2       	ldi	r20, 0x20	; 32
     384:	51 e4       	ldi	r21, 0x41	; 65
     386:	c5 01       	movw	r24, r10
     388:	b4 01       	movw	r22, r8
     38a:	0e 94 e7 06 	call	0xdce	; 0xdce <__divsf3>
     38e:	0e 94 59 07 	call	0xeb2	; 0xeb2 <__fixunssfsi>
     392:	60 93 ae 02 	sts	0x02AE, r22	; 0x8002ae <joy_x_offset>
	joy_y_offset = AVG_joy_y/10;
     396:	20 e0       	ldi	r18, 0x00	; 0
     398:	30 e0       	ldi	r19, 0x00	; 0
     39a:	40 e2       	ldi	r20, 0x20	; 32
     39c:	51 e4       	ldi	r21, 0x41	; 65
     39e:	c7 01       	movw	r24, r14
     3a0:	b6 01       	movw	r22, r12
     3a2:	0e 94 e7 06 	call	0xdce	; 0xdce <__divsf3>
     3a6:	0e 94 59 07 	call	0xeb2	; 0xeb2 <__fixunssfsi>
     3aa:	60 93 b0 02 	sts	0x02B0, r22	; 0x8002b0 <joy_y_offset>
}
     3ae:	28 96       	adiw	r28, 0x08	; 8
     3b0:	0f b6       	in	r0, 0x3f	; 63
     3b2:	f8 94       	cli
     3b4:	de bf       	out	0x3e, r29	; 62
     3b6:	0f be       	out	0x3f, r0	; 63
     3b8:	cd bf       	out	0x3d, r28	; 61
     3ba:	df 91       	pop	r29
     3bc:	cf 91       	pop	r28
     3be:	1f 91       	pop	r17
     3c0:	0f 91       	pop	r16
     3c2:	ff 90       	pop	r15
     3c4:	ef 90       	pop	r14
     3c6:	df 90       	pop	r13
     3c8:	cf 90       	pop	r12
     3ca:	bf 90       	pop	r11
     3cc:	af 90       	pop	r10
     3ce:	9f 90       	pop	r9
     3d0:	8f 90       	pop	r8
     3d2:	08 95       	ret

000003d4 <joystick_direction>:

// Determine the location of the joystick based on its distance from the center
ADC_direction joystick_direction(){
     3d4:	cf 93       	push	r28
     3d6:	df 93       	push	r29
     3d8:	cd b7       	in	r28, 0x3d	; 61
     3da:	de b7       	in	r29, 0x3e	; 62
     3dc:	28 97       	sbiw	r28, 0x08	; 8
     3de:	0f b6       	in	r0, 0x3f	; 63
     3e0:	f8 94       	cli
     3e2:	de bf       	out	0x3e, r29	; 62
     3e4:	0f be       	out	0x3f, r0	; 63
     3e6:	cd bf       	out	0x3d, r28	; 61
	ADC_pos pos = ADC_read();
     3e8:	0e 94 58 01 	call	0x2b0	; 0x2b0 <ADC_read>
     3ec:	29 83       	std	Y+1, r18	; 0x01
     3ee:	3a 83       	std	Y+2, r19	; 0x02
     3f0:	4b 83       	std	Y+3, r20	; 0x03
     3f2:	5c 83       	std	Y+4, r21	; 0x04
	

	int x = pos.joy_x;
	int y = pos.joy_y;
	
	if(abs(y-joy_y_offset) > joy_deadband){
     3f4:	20 91 b0 02 	lds	r18, 0x02B0	; 0x8002b0 <joy_y_offset>
     3f8:	8b 81       	ldd	r24, Y+3	; 0x03
     3fa:	9c 81       	ldd	r25, Y+4	; 0x04
     3fc:	82 1b       	sub	r24, r18
     3fe:	91 09       	sbc	r25, r1
     400:	20 91 af 02 	lds	r18, 0x02AF	; 0x8002af <joy_deadband>
     404:	30 e0       	ldi	r19, 0x00	; 0
     406:	ac 01       	movw	r20, r24
     408:	99 23       	and	r25, r25
     40a:	24 f4       	brge	.+8      	; 0x414 <__LOCK_REGION_LENGTH__+0x14>
     40c:	44 27       	eor	r20, r20
     40e:	55 27       	eor	r21, r21
     410:	48 1b       	sub	r20, r24
     412:	59 0b       	sbc	r21, r25
     414:	24 17       	cp	r18, r20
     416:	35 07       	cpc	r19, r21
     418:	34 f4       	brge	.+12     	; 0x426 <__LOCK_REGION_LENGTH__+0x26>
		if(y-joy_y_offset < 0){
			return DOWN;
		}
		else{
			return UP;
     41a:	89 2f       	mov	r24, r25
     41c:	88 1f       	adc	r24, r24
     41e:	88 27       	eor	r24, r24
     420:	88 1f       	adc	r24, r24
     422:	8e 5f       	subi	r24, 0xFE	; 254
     424:	16 c0       	rjmp	.+44     	; 0x452 <__LOCK_REGION_LENGTH__+0x52>
		}
	}
	else if(abs(x-joy_x_offset) > joy_deadband){
     426:	40 91 ae 02 	lds	r20, 0x02AE	; 0x8002ae <joy_x_offset>
     42a:	89 81       	ldd	r24, Y+1	; 0x01
     42c:	9a 81       	ldd	r25, Y+2	; 0x02
     42e:	84 1b       	sub	r24, r20
     430:	91 09       	sbc	r25, r1
     432:	ac 01       	movw	r20, r24
     434:	22 f4       	brpl	.+8      	; 0x43e <__LOCK_REGION_LENGTH__+0x3e>
     436:	44 27       	eor	r20, r20
     438:	55 27       	eor	r21, r21
     43a:	48 1b       	sub	r20, r24
     43c:	59 0b       	sbc	r21, r25
     43e:	24 17       	cp	r18, r20
     440:	35 07       	cpc	r19, r21
     442:	34 f4       	brge	.+12     	; 0x450 <__LOCK_REGION_LENGTH__+0x50>
	int x = pos.joy_x;
	int y = pos.joy_y;
	
	if(abs(y-joy_y_offset) > joy_deadband){
		if(y-joy_y_offset < 0){
			return DOWN;
     444:	89 2f       	mov	r24, r25
     446:	80 95       	com	r24
     448:	88 1f       	adc	r24, r24
     44a:	88 27       	eor	r24, r24
     44c:	88 1f       	adc	r24, r24
     44e:	01 c0       	rjmp	.+2      	; 0x452 <__LOCK_REGION_LENGTH__+0x52>
		else{
			return RIGHT;
		}
	}
	else{
		return NEUTRAL;
     450:	84 e0       	ldi	r24, 0x04	; 4
	}
}
     452:	28 96       	adiw	r28, 0x08	; 8
     454:	0f b6       	in	r0, 0x3f	; 63
     456:	f8 94       	cli
     458:	de bf       	out	0x3e, r29	; 62
     45a:	0f be       	out	0x3f, r0	; 63
     45c:	cd bf       	out	0x3d, r28	; 61
     45e:	df 91       	pop	r29
     460:	cf 91       	pop	r28
     462:	08 95       	ret

00000464 <debounce_joystick_direction>:

ADC_direction debounce_joystick_direction(){
     464:	cf 93       	push	r28
		ADC_direction current_direction;
		ADC_direction debounce_direction;
		
		current_direction = joystick_direction();
     466:	0e 94 ea 01 	call	0x3d4	; 0x3d4 <joystick_direction>
     46a:	c8 2f       	mov	r28, r24
	#else
		//round up by default
		__ticks_dc = (uint32_t)(ceil(fabs(__tmp)));
	#endif

	__builtin_avr_delay_cycles(__ticks_dc);
     46c:	2f ef       	ldi	r18, 0xFF	; 255
     46e:	8f e7       	ldi	r24, 0x7F	; 127
     470:	91 e0       	ldi	r25, 0x01	; 1
     472:	21 50       	subi	r18, 0x01	; 1
     474:	80 40       	sbci	r24, 0x00	; 0
     476:	90 40       	sbci	r25, 0x00	; 0
     478:	e1 f7       	brne	.-8      	; 0x472 <debounce_joystick_direction+0xe>
     47a:	00 c0       	rjmp	.+0      	; 0x47c <debounce_joystick_direction+0x18>
     47c:	00 c0       	rjmp	.+0      	; 0x47e <debounce_joystick_direction+0x1a>
		_delay_ms(100);
		debounce_direction = joystick_direction();
     47e:	0e 94 ea 01 	call	0x3d4	; 0x3d4 <joystick_direction>
		
		if (current_direction == debounce_direction){
     482:	c8 13       	cpse	r28, r24
			return current_direction;
		}
		else{
			return NEUTRAL;
     484:	84 e0       	ldi	r24, 0x04	; 4
		}		
}
     486:	cf 91       	pop	r28
     488:	08 95       	ret

0000048a <CAN_read>:
	SPI_transmit(MCP_READ_STATUS);
	data = SPI_recive();
	SPI_release_CAN();
		
	return data;	
}
     48a:	cf 93       	push	r28
     48c:	c8 2f       	mov	r28, r24
     48e:	0e 94 56 06 	call	0xcac	; 0xcac <SPI_enslaved_CAN>
     492:	83 e0       	ldi	r24, 0x03	; 3
     494:	0e 94 4d 06 	call	0xc9a	; 0xc9a <SPI_transmit>
     498:	8c 2f       	mov	r24, r28
     49a:	0e 94 4d 06 	call	0xc9a	; 0xc9a <SPI_transmit>
     49e:	0e 94 51 06 	call	0xca2	; 0xca2 <SPI_recive>
     4a2:	c8 2f       	mov	r28, r24
     4a4:	0e 94 58 06 	call	0xcb0	; 0xcb0 <SPI_release_CAN>
     4a8:	8c 2f       	mov	r24, r28
     4aa:	cf 91       	pop	r28
     4ac:	08 95       	ret

000004ae <CAN_write>:
     4ae:	cf 93       	push	r28
     4b0:	df 93       	push	r29
     4b2:	d8 2f       	mov	r29, r24
     4b4:	c6 2f       	mov	r28, r22
     4b6:	0e 94 56 06 	call	0xcac	; 0xcac <SPI_enslaved_CAN>
     4ba:	82 e0       	ldi	r24, 0x02	; 2
     4bc:	0e 94 4d 06 	call	0xc9a	; 0xc9a <SPI_transmit>
     4c0:	8d 2f       	mov	r24, r29
     4c2:	0e 94 4d 06 	call	0xc9a	; 0xc9a <SPI_transmit>
     4c6:	8c 2f       	mov	r24, r28
     4c8:	0e 94 4d 06 	call	0xc9a	; 0xc9a <SPI_transmit>
     4cc:	0e 94 58 06 	call	0xcb0	; 0xcb0 <SPI_release_CAN>
     4d0:	df 91       	pop	r29
     4d2:	cf 91       	pop	r28
     4d4:	08 95       	ret

000004d6 <CAN_bit_modify>:
     4d6:	1f 93       	push	r17
     4d8:	cf 93       	push	r28
     4da:	df 93       	push	r29
     4dc:	18 2f       	mov	r17, r24
     4de:	d6 2f       	mov	r29, r22
     4e0:	c4 2f       	mov	r28, r20
     4e2:	0e 94 56 06 	call	0xcac	; 0xcac <SPI_enslaved_CAN>
     4e6:	85 e0       	ldi	r24, 0x05	; 5
     4e8:	0e 94 4d 06 	call	0xc9a	; 0xc9a <SPI_transmit>
     4ec:	81 2f       	mov	r24, r17
     4ee:	0e 94 4d 06 	call	0xc9a	; 0xc9a <SPI_transmit>
     4f2:	8d 2f       	mov	r24, r29
     4f4:	0e 94 4d 06 	call	0xc9a	; 0xc9a <SPI_transmit>
     4f8:	8c 2f       	mov	r24, r28
     4fa:	0e 94 4d 06 	call	0xc9a	; 0xc9a <SPI_transmit>
     4fe:	0e 94 58 06 	call	0xcb0	; 0xcb0 <SPI_release_CAN>
     502:	df 91       	pop	r29
     504:	cf 91       	pop	r28
     506:	1f 91       	pop	r17
     508:	08 95       	ret

0000050a <CAN_request_to_send>:
     50a:	cf 93       	push	r28
     50c:	c8 2f       	mov	r28, r24
     50e:	0e 94 56 06 	call	0xcac	; 0xcac <SPI_enslaved_CAN>
     512:	8c 2f       	mov	r24, r28
     514:	0e 94 4d 06 	call	0xc9a	; 0xc9a <SPI_transmit>
     518:	0e 94 58 06 	call	0xcb0	; 0xcb0 <SPI_release_CAN>
     51c:	cf 91       	pop	r28
     51e:	08 95       	ret

00000520 <CAN_sw_reset>:

void CAN_sw_reset(void){
	SPI_enslaved_CAN();
     520:	0e 94 56 06 	call	0xcac	; 0xcac <SPI_enslaved_CAN>
	SPI_transmit(MCP_RESET);
     524:	80 ec       	ldi	r24, 0xC0	; 192
     526:	0e 94 4d 06 	call	0xc9a	; 0xc9a <SPI_transmit>
	SPI_release_CAN();
     52a:	0e 94 58 06 	call	0xcb0	; 0xcb0 <SPI_release_CAN>
     52e:	08 95       	ret

00000530 <CAN_init>:


// Can high level functions below
uint8_t CAN_init(void){
	uint8_t error_check;	
	CAN_sw_reset();
     530:	0e 94 90 02 	call	0x520	; 0x520 <CAN_sw_reset>
     534:	8f ef       	ldi	r24, 0xFF	; 255
     536:	9f e2       	ldi	r25, 0x2F	; 47
     538:	01 97       	sbiw	r24, 0x01	; 1
     53a:	f1 f7       	brne	.-4      	; 0x538 <CAN_init+0x8>
     53c:	00 c0       	rjmp	.+0      	; 0x53e <CAN_init+0xe>
     53e:	00 00       	nop
	_delay_ms(10);
	
	error_check = CAN_read(MCP_CANSTAT);
     540:	8e e0       	ldi	r24, 0x0E	; 14
     542:	0e 94 45 02 	call	0x48a	; 0x48a <CAN_read>
	if((error_check & MODE_MASK) != MODE_CONFIG){
     546:	80 7e       	andi	r24, 0xE0	; 224
     548:	80 38       	cpi	r24, 0x80	; 128
     54a:	f1 f4       	brne	.+60     	; 0x588 <CAN_init+0x58>
		return 1;
	}		
	
	CAN_write(MCP_CNF3, 0x01); 
     54c:	61 e0       	ldi	r22, 0x01	; 1
     54e:	88 e2       	ldi	r24, 0x28	; 40
     550:	0e 94 57 02 	call	0x4ae	; 0x4ae <CAN_write>
	CAN_write(MCP_CNF2, 0xb5); 
     554:	65 eb       	ldi	r22, 0xB5	; 181
     556:	89 e2       	ldi	r24, 0x29	; 41
     558:	0e 94 57 02 	call	0x4ae	; 0x4ae <CAN_write>
	CAN_write(MCP_CNF1, 0x43);
     55c:	63 e4       	ldi	r22, 0x43	; 67
     55e:	8a e2       	ldi	r24, 0x2A	; 42
     560:	0e 94 57 02 	call	0x4ae	; 0x4ae <CAN_write>
	
	CAN_write(MCP_CANINTE, MCP_RX_INT); //Turn on RX interupt	
     564:	63 e0       	ldi	r22, 0x03	; 3
     566:	8b e2       	ldi	r24, 0x2B	; 43
     568:	0e 94 57 02 	call	0x4ae	; 0x4ae <CAN_write>
	CAN_bit_modify(MCP_CANCTRL, MODE_POWERUP, MODE_NORMAL);
     56c:	40 e0       	ldi	r20, 0x00	; 0
     56e:	60 ee       	ldi	r22, 0xE0	; 224
     570:	8f e0       	ldi	r24, 0x0F	; 15
     572:	0e 94 6b 02 	call	0x4d6	; 0x4d6 <CAN_bit_modify>
		error_check = CAN_read(MCP_CANSTAT);
     576:	8e e0       	ldi	r24, 0x0E	; 14
     578:	0e 94 45 02 	call	0x48a	; 0x48a <CAN_read>
	CAN_sw_reset();
	_delay_ms(10);
	
	error_check = CAN_read(MCP_CANSTAT);
	if((error_check & MODE_MASK) != MODE_CONFIG){
		return 1;
     57c:	98 2f       	mov	r25, r24
     57e:	90 7e       	andi	r25, 0xE0	; 224
     580:	81 e0       	ldi	r24, 0x01	; 1
     582:	19 f4       	brne	.+6      	; 0x58a <CAN_init+0x5a>
     584:	80 e0       	ldi	r24, 0x00	; 0
     586:	08 95       	ret
     588:	81 e0       	ldi	r24, 0x01	; 1
		error_check = CAN_read(MCP_CANSTAT);
		if((error_check & MODE_MASK) != MODE_NORMAL){
			return 1;
		}
	return 0;
}
     58a:	08 95       	ret

0000058c <CAN_message_send>:


void CAN_message_send(struct can_message* msg){	
     58c:	0f 93       	push	r16
     58e:	1f 93       	push	r17
     590:	cf 93       	push	r28
     592:	8c 01       	movw	r16, r24
	uint8_t i;
	
	// Set message id
	CAN_write(MCP_TXB0SIDH, msg->id /  8);
     594:	fc 01       	movw	r30, r24
     596:	60 81       	ld	r22, Z
     598:	71 81       	ldd	r23, Z+1	; 0x01
     59a:	76 95       	lsr	r23
     59c:	67 95       	ror	r22
     59e:	76 95       	lsr	r23
     5a0:	67 95       	ror	r22
     5a2:	76 95       	lsr	r23
     5a4:	67 95       	ror	r22
     5a6:	81 e3       	ldi	r24, 0x31	; 49
     5a8:	0e 94 57 02 	call	0x4ae	; 0x4ae <CAN_write>
	CAN_write(MCP_TXB0SIDL, (msg->id % 8) << 5);
     5ac:	f8 01       	movw	r30, r16
     5ae:	60 81       	ld	r22, Z
     5b0:	62 95       	swap	r22
     5b2:	66 0f       	add	r22, r22
     5b4:	60 7e       	andi	r22, 0xE0	; 224
     5b6:	82 e3       	ldi	r24, 0x32	; 50
     5b8:	0e 94 57 02 	call	0x4ae	; 0x4ae <CAN_write>

	// set message length 
	CAN_write(MCP_TXB0DL, msg->data_length);
     5bc:	f8 01       	movw	r30, r16
     5be:	62 81       	ldd	r22, Z+2	; 0x02
     5c0:	85 e3       	ldi	r24, 0x35	; 53
     5c2:	0e 94 57 02 	call	0x4ae	; 0x4ae <CAN_write>
	
	//
	for(i = 0; i < msg->data_length; i++){
     5c6:	f8 01       	movw	r30, r16
     5c8:	82 81       	ldd	r24, Z+2	; 0x02
     5ca:	88 23       	and	r24, r24
     5cc:	71 f0       	breq	.+28     	; 0x5ea <CAN_message_send+0x5e>
     5ce:	c0 e0       	ldi	r28, 0x00	; 0
		CAN_write(MCP_TXB0D0 + i, msg->data[i]);		
     5d0:	f8 01       	movw	r30, r16
     5d2:	ec 0f       	add	r30, r28
     5d4:	f1 1d       	adc	r31, r1
     5d6:	63 81       	ldd	r22, Z+3	; 0x03
     5d8:	86 e3       	ldi	r24, 0x36	; 54
     5da:	8c 0f       	add	r24, r28
     5dc:	0e 94 57 02 	call	0x4ae	; 0x4ae <CAN_write>

	// set message length 
	CAN_write(MCP_TXB0DL, msg->data_length);
	
	//
	for(i = 0; i < msg->data_length; i++){
     5e0:	cf 5f       	subi	r28, 0xFF	; 255
     5e2:	f8 01       	movw	r30, r16
     5e4:	82 81       	ldd	r24, Z+2	; 0x02
     5e6:	c8 17       	cp	r28, r24
     5e8:	98 f3       	brcs	.-26     	; 0x5d0 <CAN_message_send+0x44>
		CAN_write(MCP_TXB0D0 + i, msg->data[i]);		
	}
	CAN_request_to_send(MCP_RTS_TX0);
     5ea:	81 e8       	ldi	r24, 0x81	; 129
     5ec:	0e 94 85 02 	call	0x50a	; 0x50a <CAN_request_to_send>
}
     5f0:	cf 91       	pop	r28
     5f2:	1f 91       	pop	r17
     5f4:	0f 91       	pop	r16
     5f6:	08 95       	ret

000005f8 <GUI_init>:
	menu_t new_game = {"New Game", 0, &new_game};
	menu_t main_menu = {"Main Menu", 3, NULL, {&new_game, &high_score, &settings}};
	menu_t* current_menu;

void GUI_init(){
	clear_high_score.parent = &settings;
     5f8:	a9 e4       	ldi	r26, 0x49	; 73
     5fa:	b1 e0       	ldi	r27, 0x01	; 1
     5fc:	b0 93 22 01 	sts	0x0122, r27	; 0x800122 <clear_high_score+0x5>
     600:	a0 93 21 01 	sts	0x0121, r26	; 0x800121 <clear_high_score+0x4>
	Adjust_joy_deadband.parent = &settings;
     604:	b0 93 0c 01 	sts	0x010C, r27	; 0x80010c <Adjust_joy_deadband+0x5>
     608:	a0 93 0b 01 	sts	0x010B, r26	; 0x80010b <Adjust_joy_deadband+0x4>
	auto_calibrate_joy.parent = &settings;
     60c:	b0 93 38 01 	sts	0x0138, r27	; 0x800138 <auto_calibrate_joy+0x5>
     610:	a0 93 37 01 	sts	0x0137, r26	; 0x800137 <auto_calibrate_joy+0x4>
	
	settings.parent = &main_menu;
     614:	eb e8       	ldi	r30, 0x8B	; 139
     616:	f1 e0       	ldi	r31, 0x01	; 1
     618:	15 96       	adiw	r26, 0x05	; 5
     61a:	fc 93       	st	X, r31
     61c:	ee 93       	st	-X, r30
     61e:	14 97       	sbiw	r26, 0x04	; 4
	high_score.parent = &main_menu;
     620:	f0 93 64 01 	sts	0x0164, r31	; 0x800164 <high_score+0x5>
     624:	e0 93 63 01 	sts	0x0163, r30	; 0x800163 <high_score+0x4>
	new_game.parent = &main_menu;
     628:	f0 93 7a 01 	sts	0x017A, r31	; 0x80017a <new_game+0x5>
     62c:	e0 93 79 01 	sts	0x0179, r30	; 0x800179 <new_game+0x4>
	main_menu.parent = &main_menu;
     630:	f5 83       	std	Z+5, r31	; 0x05
     632:	e4 83       	std	Z+4, r30	; 0x04
	
	current_menu = &main_menu;
     634:	f0 93 bd 02 	sts	0x02BD, r31	; 0x8002bd <current_menu+0x1>
     638:	e0 93 bc 02 	sts	0x02BC, r30	; 0x8002bc <current_menu>
     63c:	08 95       	ret

0000063e <GUI_print_menu>:
}

void GUI_print_menu(menu_t* print_menu){
     63e:	ef 92       	push	r14
     640:	ff 92       	push	r15
     642:	0f 93       	push	r16
     644:	1f 93       	push	r17
     646:	cf 93       	push	r28
     648:	df 93       	push	r29
     64a:	7c 01       	movw	r14, r24
	OLED_clear_all();
     64c:	0e 94 2d 06 	call	0xc5a	; 0xc5a <OLED_clear_all>
	for(int i=0; i<print_menu->number_of_childs; i++) {
     650:	d7 01       	movw	r26, r14
     652:	12 96       	adiw	r26, 0x02	; 2
     654:	8d 91       	ld	r24, X+
     656:	9c 91       	ld	r25, X
     658:	13 97       	sbiw	r26, 0x03	; 3
     65a:	18 16       	cp	r1, r24
     65c:	19 06       	cpc	r1, r25
     65e:	c4 f4       	brge	.+48     	; 0x690 <GUI_print_menu+0x52>
     660:	87 01       	movw	r16, r14
     662:	0a 5f       	subi	r16, 0xFA	; 250
     664:	1f 4f       	sbci	r17, 0xFF	; 255
     666:	c0 e0       	ldi	r28, 0x00	; 0
     668:	d0 e0       	ldi	r29, 0x00	; 0
		OLED_pos(i, 15);
     66a:	6f e0       	ldi	r22, 0x0F	; 15
     66c:	8c 2f       	mov	r24, r28
     66e:	0e 94 fd 05 	call	0xbfa	; 0xbfa <OLED_pos>
		OLED_printf((print_menu->children[i])->name);
     672:	d8 01       	movw	r26, r16
     674:	ed 91       	ld	r30, X+
     676:	fd 91       	ld	r31, X+
     678:	8d 01       	movw	r16, r26
     67a:	80 81       	ld	r24, Z
     67c:	91 81       	ldd	r25, Z+1	; 0x01
     67e:	0e 94 db 05 	call	0xbb6	; 0xbb6 <OLED_printf>
	current_menu = &main_menu;
}

void GUI_print_menu(menu_t* print_menu){
	OLED_clear_all();
	for(int i=0; i<print_menu->number_of_childs; i++) {
     682:	21 96       	adiw	r28, 0x01	; 1
     684:	f7 01       	movw	r30, r14
     686:	82 81       	ldd	r24, Z+2	; 0x02
     688:	93 81       	ldd	r25, Z+3	; 0x03
     68a:	c8 17       	cp	r28, r24
     68c:	d9 07       	cpc	r29, r25
     68e:	6c f3       	brlt	.-38     	; 0x66a <GUI_print_menu+0x2c>
		OLED_pos(i, 15);
		OLED_printf((print_menu->children[i])->name);
	}
}
     690:	df 91       	pop	r29
     692:	cf 91       	pop	r28
     694:	1f 91       	pop	r17
     696:	0f 91       	pop	r16
     698:	ff 90       	pop	r15
     69a:	ef 90       	pop	r14
     69c:	08 95       	ret

0000069e <GUI_print_arrow>:

void GUI_print_arrow(int page){
     69e:	cf 93       	push	r28
     6a0:	c8 2f       	mov	r28, r24
		OLED_clear_arrow();
     6a2:	0e 94 14 06 	call	0xc28	; 0xc28 <OLED_clear_arrow>
		OLED_pos(page, 0);
     6a6:	60 e0       	ldi	r22, 0x00	; 0
     6a8:	8c 2f       	mov	r24, r28
     6aa:	0e 94 fd 05 	call	0xbfa	; 0xbfa <OLED_pos>
		OLED_printf("->");
     6ae:	82 ea       	ldi	r24, 0xA2	; 162
     6b0:	91 e0       	ldi	r25, 0x01	; 1
     6b2:	0e 94 db 05 	call	0xbb6	; 0xbb6 <OLED_printf>
}
     6b6:	cf 91       	pop	r28
     6b8:	08 95       	ret

000006ba <GUI_menu_down>:

int GUI_menu_down(int current_page){
	current_menu = current_menu->children[current_page];
     6ba:	e0 91 bc 02 	lds	r30, 0x02BC	; 0x8002bc <current_menu>
     6be:	f0 91 bd 02 	lds	r31, 0x02BD	; 0x8002bd <current_menu+0x1>
     6c2:	03 96       	adiw	r24, 0x03	; 3
     6c4:	88 0f       	add	r24, r24
     6c6:	99 1f       	adc	r25, r25
     6c8:	e8 0f       	add	r30, r24
     6ca:	f9 1f       	adc	r31, r25
     6cc:	80 81       	ld	r24, Z
     6ce:	91 81       	ldd	r25, Z+1	; 0x01
     6d0:	90 93 bd 02 	sts	0x02BD, r25	; 0x8002bd <current_menu+0x1>
     6d4:	80 93 bc 02 	sts	0x02BC, r24	; 0x8002bc <current_menu>
	current_page = 0;
	OLED_pos(0,0);
     6d8:	60 e0       	ldi	r22, 0x00	; 0
     6da:	80 e0       	ldi	r24, 0x00	; 0
     6dc:	0e 94 fd 05 	call	0xbfa	; 0xbfa <OLED_pos>
	GUI_print_menu(current_menu);
     6e0:	80 91 bc 02 	lds	r24, 0x02BC	; 0x8002bc <current_menu>
     6e4:	90 91 bd 02 	lds	r25, 0x02BD	; 0x8002bd <current_menu+0x1>
     6e8:	0e 94 1f 03 	call	0x63e	; 0x63e <GUI_print_menu>
	OLED_pos(0,0);
     6ec:	60 e0       	ldi	r22, 0x00	; 0
     6ee:	80 e0       	ldi	r24, 0x00	; 0
     6f0:	0e 94 fd 05 	call	0xbfa	; 0xbfa <OLED_pos>
	GUI_print_arrow(current_page);
     6f4:	80 e0       	ldi	r24, 0x00	; 0
     6f6:	90 e0       	ldi	r25, 0x00	; 0
     6f8:	0e 94 4f 03 	call	0x69e	; 0x69e <GUI_print_arrow>
	return current_page;
}
     6fc:	80 e0       	ldi	r24, 0x00	; 0
     6fe:	90 e0       	ldi	r25, 0x00	; 0
     700:	08 95       	ret

00000702 <GUI_menu_up>:

int GUI_menu_up(int current_page){
	current_menu = current_menu->parent;
     702:	e0 91 bc 02 	lds	r30, 0x02BC	; 0x8002bc <current_menu>
     706:	f0 91 bd 02 	lds	r31, 0x02BD	; 0x8002bd <current_menu+0x1>
     70a:	84 81       	ldd	r24, Z+4	; 0x04
     70c:	95 81       	ldd	r25, Z+5	; 0x05
     70e:	90 93 bd 02 	sts	0x02BD, r25	; 0x8002bd <current_menu+0x1>
     712:	80 93 bc 02 	sts	0x02BC, r24	; 0x8002bc <current_menu>
	current_page = 0;
	OLED_pos(0,0);
     716:	60 e0       	ldi	r22, 0x00	; 0
     718:	80 e0       	ldi	r24, 0x00	; 0
     71a:	0e 94 fd 05 	call	0xbfa	; 0xbfa <OLED_pos>
	GUI_print_menu(current_menu);
     71e:	80 91 bc 02 	lds	r24, 0x02BC	; 0x8002bc <current_menu>
     722:	90 91 bd 02 	lds	r25, 0x02BD	; 0x8002bd <current_menu+0x1>
     726:	0e 94 1f 03 	call	0x63e	; 0x63e <GUI_print_menu>
	OLED_pos(0,0);
     72a:	60 e0       	ldi	r22, 0x00	; 0
     72c:	80 e0       	ldi	r24, 0x00	; 0
     72e:	0e 94 fd 05 	call	0xbfa	; 0xbfa <OLED_pos>
	GUI_print_arrow(current_page);
     732:	80 e0       	ldi	r24, 0x00	; 0
     734:	90 e0       	ldi	r25, 0x00	; 0
     736:	0e 94 4f 03 	call	0x69e	; 0x69e <GUI_print_arrow>
	return current_page;
}
     73a:	80 e0       	ldi	r24, 0x00	; 0
     73c:	90 e0       	ldi	r25, 0x00	; 0
     73e:	08 95       	ret

00000740 <GUI_menu_action>:

void GUI_menu_action(int current_page){
     740:	df 92       	push	r13
     742:	ef 92       	push	r14
     744:	ff 92       	push	r15
     746:	0f 93       	push	r16
     748:	1f 93       	push	r17
     74a:	cf 93       	push	r28
     74c:	df 93       	push	r29
     74e:	cd b7       	in	r28, 0x3d	; 61
     750:	de b7       	in	r29, 0x3e	; 62
     752:	2f 97       	sbiw	r28, 0x0f	; 15
     754:	0f b6       	in	r0, 0x3f	; 63
     756:	f8 94       	cli
     758:	de bf       	out	0x3e, r29	; 62
     75a:	0f be       	out	0x3f, r0	; 63
     75c:	cd bf       	out	0x3d, r28	; 61
	ADC_direction current_direction;
	char*  current_child;
	current_child = current_menu->name;
     75e:	e0 91 bc 02 	lds	r30, 0x02BC	; 0x8002bc <current_menu>
     762:	f0 91 bd 02 	lds	r31, 0x02BD	; 0x8002bd <current_menu+0x1>
     766:	00 81       	ld	r16, Z
     768:	11 81       	ldd	r17, Z+1	; 0x01
	
	if(strcmp("New Game", current_child) == 0){
     76a:	b8 01       	movw	r22, r16
     76c:	85 ea       	ldi	r24, 0xA5	; 165
     76e:	91 e0       	ldi	r25, 0x01	; 1
     770:	0e 94 16 08 	call	0x102c	; 0x102c <strcmp>
     774:	89 2b       	or	r24, r25
     776:	a1 f5       	brne	.+104    	; 0x7e0 <GUI_menu_action+0xa0>
		OLED_pos(3, 43);
     778:	6b e2       	ldi	r22, 0x2B	; 43
     77a:	83 e0       	ldi	r24, 0x03	; 3
     77c:	0e 94 fd 05 	call	0xbfa	; 0xbfa <OLED_pos>
		OLED_printf("HAVE FUN");
     780:	8e ea       	ldi	r24, 0xAE	; 174
     782:	91 e0       	ldi	r25, 0x01	; 1
     784:	0e 94 db 05 	call	0xbb6	; 0xbb6 <OLED_printf>
     788:	2f ef       	ldi	r18, 0xFF	; 255
     78a:	8f ef       	ldi	r24, 0xFF	; 255
     78c:	9e e0       	ldi	r25, 0x0E	; 14
     78e:	21 50       	subi	r18, 0x01	; 1
     790:	80 40       	sbci	r24, 0x00	; 0
     792:	90 40       	sbci	r25, 0x00	; 0
     794:	e1 f7       	brne	.-8      	; 0x78e <GUI_menu_action+0x4e>
     796:	00 c0       	rjmp	.+0      	; 0x798 <GUI_menu_action+0x58>
     798:	00 00       	nop
		_delay_ms(1000); // INSERT GAME PLAY HERE
		
		while(1){
		ADC_pos adc_pos = ADC_read();
		
		ADC_to_node2.id = 2;
     79a:	01 eb       	ldi	r16, 0xB1	; 177
     79c:	12 e0       	ldi	r17, 0x02	; 2
     79e:	68 94       	set
     7a0:	ee 24       	eor	r14, r14
     7a2:	e1 f8       	bld	r14, 1
     7a4:	f1 2c       	mov	r15, r1
		ADC_to_node2.data_length = 2;
     7a6:	68 94       	set
     7a8:	dd 24       	eor	r13, r13
     7aa:	d1 f8       	bld	r13, 1
		OLED_pos(3, 43);
		OLED_printf("HAVE FUN");
		_delay_ms(1000); // INSERT GAME PLAY HERE
		
		while(1){
		ADC_pos adc_pos = ADC_read();
     7ac:	0e 94 58 01 	call	0x2b0	; 0x2b0 <ADC_read>
     7b0:	29 83       	std	Y+1, r18	; 0x01
     7b2:	3a 83       	std	Y+2, r19	; 0x02
     7b4:	4b 83       	std	Y+3, r20	; 0x03
     7b6:	5c 83       	std	Y+4, r21	; 0x04
     7b8:	6d 83       	std	Y+5, r22	; 0x05
     7ba:	7e 83       	std	Y+6, r23	; 0x06
     7bc:	8f 83       	std	Y+7, r24	; 0x07
     7be:	98 87       	std	Y+8, r25	; 0x08
		
		ADC_to_node2.id = 2;
     7c0:	f8 01       	movw	r30, r16
     7c2:	f1 82       	std	Z+1, r15	; 0x01
     7c4:	e0 82       	st	Z, r14
		ADC_to_node2.data_length = 2;
     7c6:	d2 82       	std	Z+2, r13	; 0x02
		ADC_to_node2.data[0] = adc_pos.slider_left;
     7c8:	63 83       	std	Z+3, r22	; 0x03
		ADC_to_node2.data[1] = adc_pos.slider_right; 
     7ca:	84 83       	std	Z+4, r24	; 0x04
					
		CAN_message_send(&ADC_to_node2);
     7cc:	c8 01       	movw	r24, r16
     7ce:	0e 94 c6 02 	call	0x58c	; 0x58c <CAN_message_send>
     7d2:	8c ec       	ldi	r24, 0xCC	; 204
     7d4:	9c e4       	ldi	r25, 0x4C	; 76
     7d6:	01 97       	sbiw	r24, 0x01	; 1
     7d8:	f1 f7       	brne	.-4      	; 0x7d6 <GUI_menu_action+0x96>
     7da:	00 c0       	rjmp	.+0      	; 0x7dc <GUI_menu_action+0x9c>
     7dc:	00 00       	nop
     7de:	e6 cf       	rjmp	.-52     	; 0x7ac <GUI_menu_action+0x6c>
		OLED_clear_all();
		OLED_pos(3, 39);
		OLED_printf("GAME ENDED");
		_delay_ms(1000);
	}
	else if(strcmp("High Score", current_child) == 0){
     7e0:	b8 01       	movw	r22, r16
     7e2:	8c e6       	ldi	r24, 0x6C	; 108
     7e4:	92 e0       	ldi	r25, 0x02	; 2
     7e6:	0e 94 16 08 	call	0x102c	; 0x102c <strcmp>
     7ea:	89 2b       	or	r24, r25
     7ec:	91 f4       	brne	.+36     	; 0x812 <GUI_menu_action+0xd2>
			OLED_pos(3, 24);
     7ee:	68 e1       	ldi	r22, 0x18	; 24
     7f0:	83 e0       	ldi	r24, 0x03	; 3
     7f2:	0e 94 fd 05 	call	0xbfa	; 0xbfa <OLED_pos>
			OLED_printf("Print High Score"); //Print high score here
     7f6:	87 eb       	ldi	r24, 0xB7	; 183
     7f8:	91 e0       	ldi	r25, 0x01	; 1
     7fa:	0e 94 db 05 	call	0xbb6	; 0xbb6 <OLED_printf>
     7fe:	9f ef       	ldi	r25, 0xFF	; 255
     800:	ef ef       	ldi	r30, 0xFF	; 255
     802:	fd e1       	ldi	r31, 0x1D	; 29
     804:	91 50       	subi	r25, 0x01	; 1
     806:	e0 40       	sbci	r30, 0x00	; 0
     808:	f0 40       	sbci	r31, 0x00	; 0
     80a:	e1 f7       	brne	.-8      	; 0x804 <GUI_menu_action+0xc4>
     80c:	00 c0       	rjmp	.+0      	; 0x80e <GUI_menu_action+0xce>
     80e:	00 00       	nop
     810:	c8 c0       	rjmp	.+400    	; 0x9a2 <GUI_menu_action+0x262>
			_delay_ms(2000);		
	}
	else if (strcmp("Auto Calibrate Joy", current_child) == 0){
     812:	b8 01       	movw	r22, r16
     814:	88 ec       	ldi	r24, 0xC8	; 200
     816:	91 e0       	ldi	r25, 0x01	; 1
     818:	0e 94 16 08 	call	0x102c	; 0x102c <strcmp>
     81c:	89 2b       	or	r24, r25
     81e:	29 f5       	brne	.+74     	; 0x86a <GUI_menu_action+0x12a>
			OLED_pos(3, 14);
     820:	6e e0       	ldi	r22, 0x0E	; 14
     822:	83 e0       	ldi	r24, 0x03	; 3
     824:	0e 94 fd 05 	call	0xbfa	; 0xbfa <OLED_pos>
			OLED_printf("Calibrating Joystick"); 
     828:	8b ed       	ldi	r24, 0xDB	; 219
     82a:	91 e0       	ldi	r25, 0x01	; 1
     82c:	0e 94 db 05 	call	0xbb6	; 0xbb6 <OLED_printf>
			OLED_pos(4, 34);
     830:	62 e2       	ldi	r22, 0x22	; 34
     832:	84 e0       	ldi	r24, 0x04	; 4
     834:	0e 94 fd 05 	call	0xbfa	; 0xbfa <OLED_pos>
			OLED_printf("DO NOT TOUCH");
     838:	80 ef       	ldi	r24, 0xF0	; 240
     83a:	91 e0       	ldi	r25, 0x01	; 1
     83c:	0e 94 db 05 	call	0xbb6	; 0xbb6 <OLED_printf>
     840:	2f ef       	ldi	r18, 0xFF	; 255
     842:	8f ef       	ldi	r24, 0xFF	; 255
     844:	9d e1       	ldi	r25, 0x1D	; 29
     846:	21 50       	subi	r18, 0x01	; 1
     848:	80 40       	sbci	r24, 0x00	; 0
     84a:	90 40       	sbci	r25, 0x00	; 0
     84c:	e1 f7       	brne	.-8      	; 0x846 <GUI_menu_action+0x106>
     84e:	00 c0       	rjmp	.+0      	; 0x850 <GUI_menu_action+0x110>
     850:	00 00       	nop
			_delay_ms(2000);
			joystick_calibrate();
     852:	0e 94 82 01 	call	0x304	; 0x304 <joystick_calibrate>
     856:	ef ef       	ldi	r30, 0xFF	; 255
     858:	ff ef       	ldi	r31, 0xFF	; 255
     85a:	2d e1       	ldi	r18, 0x1D	; 29
     85c:	e1 50       	subi	r30, 0x01	; 1
     85e:	f0 40       	sbci	r31, 0x00	; 0
     860:	20 40       	sbci	r18, 0x00	; 0
     862:	e1 f7       	brne	.-8      	; 0x85c <GUI_menu_action+0x11c>
     864:	00 c0       	rjmp	.+0      	; 0x866 <GUI_menu_action+0x126>
     866:	00 00       	nop
     868:	9c c0       	rjmp	.+312    	; 0x9a2 <GUI_menu_action+0x262>
			_delay_ms(2000);
	}
	else if (strcmp("Adjust Joy Deadband", current_child) == 0){
     86a:	b8 01       	movw	r22, r16
     86c:	8d ef       	ldi	r24, 0xFD	; 253
     86e:	91 e0       	ldi	r25, 0x01	; 1
     870:	0e 94 16 08 	call	0x102c	; 0x102c <strcmp>
     874:	89 2b       	or	r24, r25
     876:	09 f0       	breq	.+2      	; 0x87a <GUI_menu_action+0x13a>
     878:	64 c0       	rjmp	.+200    	; 0x942 <GUI_menu_action+0x202>
		
		char joy_deadband_value[15];
		OLED_pos(0, 0);
     87a:	60 e0       	ldi	r22, 0x00	; 0
     87c:	80 e0       	ldi	r24, 0x00	; 0
     87e:	0e 94 fd 05 	call	0xbfa	; 0xbfa <OLED_pos>
		OLED_printf("Adjust Joy Deadband");
     882:	8d ef       	ldi	r24, 0xFD	; 253
     884:	91 e0       	ldi	r25, 0x01	; 1
     886:	0e 94 db 05 	call	0xbb6	; 0xbb6 <OLED_printf>
		OLED_pos(1, 0);
     88a:	60 e0       	ldi	r22, 0x00	; 0
     88c:	81 e0       	ldi	r24, 0x01	; 1
     88e:	0e 94 fd 05 	call	0xbfa	; 0xbfa <OLED_pos>
		OLED_printf("Move Joy up to Increase");
     892:	81 e1       	ldi	r24, 0x11	; 17
     894:	92 e0       	ldi	r25, 0x02	; 2
     896:	0e 94 db 05 	call	0xbb6	; 0xbb6 <OLED_printf>
		OLED_pos(2, 0);
     89a:	60 e0       	ldi	r22, 0x00	; 0
     89c:	82 e0       	ldi	r24, 0x02	; 2
     89e:	0e 94 fd 05 	call	0xbfa	; 0xbfa <OLED_pos>
		OLED_printf("Move Joy down to decrease");
     8a2:	89 e2       	ldi	r24, 0x29	; 41
     8a4:	92 e0       	ldi	r25, 0x02	; 2
     8a6:	0e 94 db 05 	call	0xbb6	; 0xbb6 <OLED_printf>
		OLED_pos(7, 0);
     8aa:	60 e0       	ldi	r22, 0x00	; 0
     8ac:	87 e0       	ldi	r24, 0x07	; 7
     8ae:	0e 94 fd 05 	call	0xbfa	; 0xbfa <OLED_pos>
		OLED_printf("Move Joy Left to Exit");
     8b2:	83 e4       	ldi	r24, 0x43	; 67
     8b4:	92 e0       	ldi	r25, 0x02	; 2
     8b6:	0e 94 db 05 	call	0xbb6	; 0xbb6 <OLED_printf>
		current_direction = debounce_joystick_direction();
     8ba:	0e 94 32 02 	call	0x464	; 0x464 <debounce_joystick_direction>
		while(current_direction != LEFT){
     8be:	88 23       	and	r24, r24
     8c0:	b1 f1       	breq	.+108    	; 0x92e <GUI_menu_action+0x1ee>
				joy_deadband ++;
			}
			else if(current_direction == DOWN){
				joy_deadband --;	
			}		
			sprintf(joy_deadband_value, "deadband: %d", joy_deadband);
     8c2:	0f 2e       	mov	r0, r31
     8c4:	f9 e5       	ldi	r31, 0x59	; 89
     8c6:	ef 2e       	mov	r14, r31
     8c8:	f2 e0       	ldi	r31, 0x02	; 2
     8ca:	ff 2e       	mov	r15, r31
     8cc:	f0 2d       	mov	r31, r0
     8ce:	8e 01       	movw	r16, r28
     8d0:	0f 5f       	subi	r16, 0xFF	; 255
     8d2:	1f 4f       	sbci	r17, 0xFF	; 255
		OLED_printf("Move Joy down to decrease");
		OLED_pos(7, 0);
		OLED_printf("Move Joy Left to Exit");
		current_direction = debounce_joystick_direction();
		while(current_direction != LEFT){
			current_direction = debounce_joystick_direction();
     8d4:	0e 94 32 02 	call	0x464	; 0x464 <debounce_joystick_direction>
     8d8:	d8 2e       	mov	r13, r24
			if(current_direction == UP){
     8da:	82 e0       	ldi	r24, 0x02	; 2
     8dc:	d8 12       	cpse	r13, r24
     8de:	06 c0       	rjmp	.+12     	; 0x8ec <GUI_menu_action+0x1ac>
				joy_deadband ++;
     8e0:	80 91 af 02 	lds	r24, 0x02AF	; 0x8002af <joy_deadband>
     8e4:	8f 5f       	subi	r24, 0xFF	; 255
     8e6:	80 93 af 02 	sts	0x02AF, r24	; 0x8002af <joy_deadband>
     8ea:	44 c0       	rjmp	.+136    	; 0x974 <GUI_menu_action+0x234>
			}
			else if(current_direction == DOWN){
     8ec:	93 e0       	ldi	r25, 0x03	; 3
     8ee:	d9 12       	cpse	r13, r25
     8f0:	06 c0       	rjmp	.+12     	; 0x8fe <GUI_menu_action+0x1be>
				joy_deadband --;	
     8f2:	80 91 af 02 	lds	r24, 0x02AF	; 0x8002af <joy_deadband>
     8f6:	81 50       	subi	r24, 0x01	; 1
     8f8:	80 93 af 02 	sts	0x02AF, r24	; 0x8002af <joy_deadband>
     8fc:	3b c0       	rjmp	.+118    	; 0x974 <GUI_menu_action+0x234>
			}		
			sprintf(joy_deadband_value, "deadband: %d", joy_deadband);
     8fe:	80 91 af 02 	lds	r24, 0x02AF	; 0x8002af <joy_deadband>
     902:	1f 92       	push	r1
     904:	8f 93       	push	r24
     906:	ff 92       	push	r15
     908:	ef 92       	push	r14
     90a:	1f 93       	push	r17
     90c:	0f 93       	push	r16
     90e:	0e 94 9a 08 	call	0x1134	; 0x1134 <sprintf>
			OLED_clear_line(4);
     912:	84 e0       	ldi	r24, 0x04	; 4
     914:	0e 94 09 06 	call	0xc12	; 0xc12 <OLED_clear_line>
			OLED_printf(joy_deadband_value);
     918:	c8 01       	movw	r24, r16
     91a:	0e 94 db 05 	call	0xbb6	; 0xbb6 <OLED_printf>
		OLED_pos(2, 0);
		OLED_printf("Move Joy down to decrease");
		OLED_pos(7, 0);
		OLED_printf("Move Joy Left to Exit");
		current_direction = debounce_joystick_direction();
		while(current_direction != LEFT){
     91e:	0f 90       	pop	r0
     920:	0f 90       	pop	r0
     922:	0f 90       	pop	r0
     924:	0f 90       	pop	r0
     926:	0f 90       	pop	r0
     928:	0f 90       	pop	r0
     92a:	d1 10       	cpse	r13, r1
     92c:	d3 cf       	rjmp	.-90     	; 0x8d4 <GUI_menu_action+0x194>
     92e:	ef ef       	ldi	r30, 0xFF	; 255
     930:	ff e7       	ldi	r31, 0x7F	; 127
     932:	21 e0       	ldi	r18, 0x01	; 1
     934:	e1 50       	subi	r30, 0x01	; 1
     936:	f0 40       	sbci	r31, 0x00	; 0
     938:	20 40       	sbci	r18, 0x00	; 0
     93a:	e1 f7       	brne	.-8      	; 0x934 <GUI_menu_action+0x1f4>
     93c:	00 c0       	rjmp	.+0      	; 0x93e <GUI_menu_action+0x1fe>
     93e:	00 c0       	rjmp	.+0      	; 0x940 <GUI_menu_action+0x200>
     940:	30 c0       	rjmp	.+96     	; 0x9a2 <GUI_menu_action+0x262>
			OLED_clear_line(4);
			OLED_printf(joy_deadband_value);
		}
		_delay_ms(100);
	}
	else if (strcmp("Clear High Score", current_child) == 0){
     942:	b8 01       	movw	r22, r16
     944:	86 e6       	ldi	r24, 0x66	; 102
     946:	92 e0       	ldi	r25, 0x02	; 2
     948:	0e 94 16 08 	call	0x102c	; 0x102c <strcmp>
     94c:	89 2b       	or	r24, r25
     94e:	49 f5       	brne	.+82     	; 0x9a2 <GUI_menu_action+0x262>
			OLED_pos(3, 19);
     950:	63 e1       	ldi	r22, 0x13	; 19
     952:	83 e0       	ldi	r24, 0x03	; 3
     954:	0e 94 fd 05 	call	0xbfa	; 0xbfa <OLED_pos>
			OLED_printf("High Score Cleared");
     958:	87 e7       	ldi	r24, 0x77	; 119
     95a:	92 e0       	ldi	r25, 0x02	; 2
     95c:	0e 94 db 05 	call	0xbb6	; 0xbb6 <OLED_printf>
     960:	8f ef       	ldi	r24, 0xFF	; 255
     962:	9f ef       	ldi	r25, 0xFF	; 255
     964:	ed e1       	ldi	r30, 0x1D	; 29
     966:	81 50       	subi	r24, 0x01	; 1
     968:	90 40       	sbci	r25, 0x00	; 0
     96a:	e0 40       	sbci	r30, 0x00	; 0
     96c:	e1 f7       	brne	.-8      	; 0x966 <GUI_menu_action+0x226>
     96e:	00 c0       	rjmp	.+0      	; 0x970 <GUI_menu_action+0x230>
     970:	00 00       	nop
			_delay_ms(2000);
	}
}
     972:	17 c0       	rjmp	.+46     	; 0x9a2 <GUI_menu_action+0x262>
				joy_deadband ++;
			}
			else if(current_direction == DOWN){
				joy_deadband --;	
			}		
			sprintf(joy_deadband_value, "deadband: %d", joy_deadband);
     974:	80 91 af 02 	lds	r24, 0x02AF	; 0x8002af <joy_deadband>
     978:	1f 92       	push	r1
     97a:	8f 93       	push	r24
     97c:	ff 92       	push	r15
     97e:	ef 92       	push	r14
     980:	1f 93       	push	r17
     982:	0f 93       	push	r16
     984:	0e 94 9a 08 	call	0x1134	; 0x1134 <sprintf>
			OLED_clear_line(4);
     988:	84 e0       	ldi	r24, 0x04	; 4
     98a:	0e 94 09 06 	call	0xc12	; 0xc12 <OLED_clear_line>
			OLED_printf(joy_deadband_value);
     98e:	c8 01       	movw	r24, r16
     990:	0e 94 db 05 	call	0xbb6	; 0xbb6 <OLED_printf>
     994:	0f 90       	pop	r0
     996:	0f 90       	pop	r0
     998:	0f 90       	pop	r0
     99a:	0f 90       	pop	r0
     99c:	0f 90       	pop	r0
     99e:	0f 90       	pop	r0
     9a0:	99 cf       	rjmp	.-206    	; 0x8d4 <GUI_menu_action+0x194>
	else if (strcmp("Clear High Score", current_child) == 0){
			OLED_pos(3, 19);
			OLED_printf("High Score Cleared");
			_delay_ms(2000);
	}
}
     9a2:	2f 96       	adiw	r28, 0x0f	; 15
     9a4:	0f b6       	in	r0, 0x3f	; 63
     9a6:	f8 94       	cli
     9a8:	de bf       	out	0x3e, r29	; 62
     9aa:	0f be       	out	0x3f, r0	; 63
     9ac:	cd bf       	out	0x3d, r28	; 61
     9ae:	df 91       	pop	r29
     9b0:	cf 91       	pop	r28
     9b2:	1f 91       	pop	r17
     9b4:	0f 91       	pop	r16
     9b6:	ff 90       	pop	r15
     9b8:	ef 90       	pop	r14
     9ba:	df 90       	pop	r13
     9bc:	08 95       	ret

000009be <GUI_menu>:


void GUI_menu(){
     9be:	cf 93       	push	r28
	static ADC_direction previous_direction = NEUTRAL;
	static int current_page = 0;
	ADC_direction current_direction;
	 		
	current_direction = debounce_joystick_direction();
     9c0:	0e 94 32 02 	call	0x464	; 0x464 <debounce_joystick_direction>
     9c4:	c8 2f       	mov	r28, r24
	if (current_direction != previous_direction){
     9c6:	80 91 06 01 	lds	r24, 0x0106	; 0x800106 <previous_direction.2196>
     9ca:	c8 17       	cp	r28, r24
     9cc:	09 f4       	brne	.+2      	; 0x9d0 <GUI_menu+0x12>
     9ce:	7a c0       	rjmp	.+244    	; 0xac4 <GUI_menu+0x106>
		switch(current_direction){
     9d0:	c1 30       	cpi	r28, 0x01	; 1
     9d2:	09 f4       	brne	.+2      	; 0x9d6 <GUI_menu+0x18>
     9d4:	46 c0       	rjmp	.+140    	; 0xa62 <GUI_menu+0xa4>
     9d6:	08 f4       	brcc	.+2      	; 0x9da <GUI_menu+0x1c>
     9d8:	69 c0       	rjmp	.+210    	; 0xaac <GUI_menu+0xee>
     9da:	c2 30       	cpi	r28, 0x02	; 2
     9dc:	19 f0       	breq	.+6      	; 0x9e4 <GUI_menu+0x26>
     9de:	c3 30       	cpi	r28, 0x03	; 3
     9e0:	01 f1       	breq	.+64     	; 0xa22 <GUI_menu+0x64>
     9e2:	6e c0       	rjmp	.+220    	; 0xac0 <GUI_menu+0x102>
			case UP:
				if(current_page > 0){
     9e4:	80 91 ac 02 	lds	r24, 0x02AC	; 0x8002ac <__data_end>
     9e8:	90 91 ad 02 	lds	r25, 0x02AD	; 0x8002ad <__data_end+0x1>
     9ec:	18 16       	cp	r1, r24
     9ee:	19 06       	cpc	r1, r25
     9f0:	34 f4       	brge	.+12     	; 0x9fe <GUI_menu+0x40>
				current_page --;
     9f2:	01 97       	sbiw	r24, 0x01	; 1
     9f4:	90 93 ad 02 	sts	0x02AD, r25	; 0x8002ad <__data_end+0x1>
     9f8:	80 93 ac 02 	sts	0x02AC, r24	; 0x8002ac <__data_end>
     9fc:	0b c0       	rjmp	.+22     	; 0xa14 <GUI_menu+0x56>
				}
				else {
				current_page = (current_menu->number_of_childs)-1;
     9fe:	e0 91 bc 02 	lds	r30, 0x02BC	; 0x8002bc <current_menu>
     a02:	f0 91 bd 02 	lds	r31, 0x02BD	; 0x8002bd <current_menu+0x1>
     a06:	82 81       	ldd	r24, Z+2	; 0x02
     a08:	93 81       	ldd	r25, Z+3	; 0x03
     a0a:	01 97       	sbiw	r24, 0x01	; 1
     a0c:	90 93 ad 02 	sts	0x02AD, r25	; 0x8002ad <__data_end+0x1>
     a10:	80 93 ac 02 	sts	0x02AC, r24	; 0x8002ac <__data_end>
				} 
				GUI_print_arrow(current_page);
     a14:	80 91 ac 02 	lds	r24, 0x02AC	; 0x8002ac <__data_end>
     a18:	90 91 ad 02 	lds	r25, 0x02AD	; 0x8002ad <__data_end+0x1>
     a1c:	0e 94 4f 03 	call	0x69e	; 0x69e <GUI_print_arrow>
			break;
     a20:	4f c0       	rjmp	.+158    	; 0xac0 <GUI_menu+0x102>
		
			case DOWN:
				if(current_page < (current_menu->number_of_childs)-1){
     a22:	20 91 ac 02 	lds	r18, 0x02AC	; 0x8002ac <__data_end>
     a26:	30 91 ad 02 	lds	r19, 0x02AD	; 0x8002ad <__data_end+0x1>
     a2a:	e0 91 bc 02 	lds	r30, 0x02BC	; 0x8002bc <current_menu>
     a2e:	f0 91 bd 02 	lds	r31, 0x02BD	; 0x8002bd <current_menu+0x1>
     a32:	82 81       	ldd	r24, Z+2	; 0x02
     a34:	93 81       	ldd	r25, Z+3	; 0x03
     a36:	01 97       	sbiw	r24, 0x01	; 1
     a38:	28 17       	cp	r18, r24
     a3a:	39 07       	cpc	r19, r25
     a3c:	3c f4       	brge	.+14     	; 0xa4c <GUI_menu+0x8e>
					current_page ++;
     a3e:	2f 5f       	subi	r18, 0xFF	; 255
     a40:	3f 4f       	sbci	r19, 0xFF	; 255
     a42:	30 93 ad 02 	sts	0x02AD, r19	; 0x8002ad <__data_end+0x1>
     a46:	20 93 ac 02 	sts	0x02AC, r18	; 0x8002ac <__data_end>
     a4a:	04 c0       	rjmp	.+8      	; 0xa54 <GUI_menu+0x96>
				}
				else {
					current_page = 0;
     a4c:	10 92 ad 02 	sts	0x02AD, r1	; 0x8002ad <__data_end+0x1>
     a50:	10 92 ac 02 	sts	0x02AC, r1	; 0x8002ac <__data_end>
				}
				GUI_print_arrow(current_page);	
     a54:	80 91 ac 02 	lds	r24, 0x02AC	; 0x8002ac <__data_end>
     a58:	90 91 ad 02 	lds	r25, 0x02AD	; 0x8002ad <__data_end+0x1>
     a5c:	0e 94 4f 03 	call	0x69e	; 0x69e <GUI_print_arrow>
			break;
     a60:	2f c0       	rjmp	.+94     	; 0xac0 <GUI_menu+0x102>
		
			case RIGHT:
				current_page = GUI_menu_down(current_page);
     a62:	80 91 ac 02 	lds	r24, 0x02AC	; 0x8002ac <__data_end>
     a66:	90 91 ad 02 	lds	r25, 0x02AD	; 0x8002ad <__data_end+0x1>
     a6a:	0e 94 5d 03 	call	0x6ba	; 0x6ba <GUI_menu_down>
     a6e:	90 93 ad 02 	sts	0x02AD, r25	; 0x8002ad <__data_end+0x1>
     a72:	80 93 ac 02 	sts	0x02AC, r24	; 0x8002ac <__data_end>
				if(current_menu->number_of_childs == 0){
     a76:	e0 91 bc 02 	lds	r30, 0x02BC	; 0x8002bc <current_menu>
     a7a:	f0 91 bd 02 	lds	r31, 0x02BD	; 0x8002bd <current_menu+0x1>
     a7e:	82 81       	ldd	r24, Z+2	; 0x02
     a80:	93 81       	ldd	r25, Z+3	; 0x03
     a82:	89 2b       	or	r24, r25
     a84:	e9 f4       	brne	.+58     	; 0xac0 <GUI_menu+0x102>
					OLED_clear_all();
     a86:	0e 94 2d 06 	call	0xc5a	; 0xc5a <OLED_clear_all>
					GUI_menu_action(current_page);
     a8a:	80 91 ac 02 	lds	r24, 0x02AC	; 0x8002ac <__data_end>
     a8e:	90 91 ad 02 	lds	r25, 0x02AD	; 0x8002ad <__data_end+0x1>
     a92:	0e 94 a0 03 	call	0x740	; 0x740 <GUI_menu_action>
					current_page = GUI_menu_up(current_page);
     a96:	80 91 ac 02 	lds	r24, 0x02AC	; 0x8002ac <__data_end>
     a9a:	90 91 ad 02 	lds	r25, 0x02AD	; 0x8002ad <__data_end+0x1>
     a9e:	0e 94 81 03 	call	0x702	; 0x702 <GUI_menu_up>
     aa2:	90 93 ad 02 	sts	0x02AD, r25	; 0x8002ad <__data_end+0x1>
     aa6:	80 93 ac 02 	sts	0x02AC, r24	; 0x8002ac <__data_end>
     aaa:	0a c0       	rjmp	.+20     	; 0xac0 <GUI_menu+0x102>
				}
			break;
		
			case LEFT:
				current_page = GUI_menu_up(current_page);	
     aac:	80 91 ac 02 	lds	r24, 0x02AC	; 0x8002ac <__data_end>
     ab0:	90 91 ad 02 	lds	r25, 0x02AD	; 0x8002ad <__data_end+0x1>
     ab4:	0e 94 81 03 	call	0x702	; 0x702 <GUI_menu_up>
     ab8:	90 93 ad 02 	sts	0x02AD, r25	; 0x8002ad <__data_end+0x1>
     abc:	80 93 ac 02 	sts	0x02AC, r24	; 0x8002ac <__data_end>
			break;
			
			case NEUTRAL:
			break;
		}
		previous_direction = current_direction;	
     ac0:	c0 93 06 01 	sts	0x0106, r28	; 0x800106 <previous_direction.2196>
	}	
}
     ac4:	cf 91       	pop	r28
     ac6:	08 95       	ret

00000ac8 <main>:
     ac8:	2f ef       	ldi	r18, 0xFF	; 255
     aca:	8f ef       	ldi	r24, 0xFF	; 255
     acc:	9e e0       	ldi	r25, 0x0E	; 14
     ace:	21 50       	subi	r18, 0x01	; 1
     ad0:	80 40       	sbci	r24, 0x00	; 0
     ad2:	90 40       	sbci	r25, 0x00	; 0
     ad4:	e1 f7       	brne	.-8      	; 0xace <main+0x6>
     ad6:	00 c0       	rjmp	.+0      	; 0xad8 <main+0x10>
     ad8:	00 00       	nop


int main(void)
{	
	_delay_ms(1000); //Wait for OLED controller to turn on.
	UART_init();
     ada:	0e 94 6c 06 	call	0xcd8	; 0xcd8 <UART_init>
	SRAM_init();
     ade:	0e 94 5a 06 	call	0xcb4	; 0xcb4 <SRAM_init>
	ADC_init();
     ae2:	0e 94 45 01 	call	0x28a	; 0x28a <ADC_init>
	OLED_init();
     ae6:	0e 94 8e 05 	call	0xb1c	; 0xb1c <OLED_init>
	GUI_init();
     aea:	0e 94 fc 02 	call	0x5f8	; 0x5f8 <GUI_init>
	SPI_MasterInit();
     aee:	0e 94 47 06 	call	0xc8e	; 0xc8e <SPI_MasterInit>
	if (CAN_init() == 1 ){
     af2:	0e 94 98 02 	call	0x530	; 0x530 <CAN_init>
     af6:	81 30       	cpi	r24, 0x01	; 1
     af8:	21 f4       	brne	.+8      	; 0xb02 <main+0x3a>
		printf("CAN init error\n");
     afa:	8d e9       	ldi	r24, 0x9D	; 157
     afc:	92 e0       	ldi	r25, 0x02	; 2
     afe:	0e 94 6a 08 	call	0x10d4	; 0x10d4 <puts>
	}
	
	//clear_bit(DDRD, PIND2);
	
	GUI_print_menu(current_menu);
     b02:	80 91 bc 02 	lds	r24, 0x02BC	; 0x8002bc <current_menu>
     b06:	90 91 bd 02 	lds	r25, 0x02BD	; 0x8002bd <current_menu+0x1>
     b0a:	0e 94 1f 03 	call	0x63e	; 0x63e <GUI_print_menu>
	GUI_print_arrow(0);
     b0e:	80 e0       	ldi	r24, 0x00	; 0
     b10:	90 e0       	ldi	r25, 0x00	; 0
     b12:	0e 94 4f 03 	call	0x69e	; 0x69e <GUI_print_arrow>
			printf("data %d\n\n", test_control.data[0]);		
		}*/

		

		GUI_menu();		
     b16:	0e 94 df 04 	call	0x9be	; 0x9be <GUI_menu>
     b1a:	fd cf       	rjmp	.-6      	; 0xb16 <main+0x4e>

00000b1c <OLED_init>:
#include "fonts.h"


void OLED_write_command(char  command){
	volatile char *OLED_write = (char *) 0x1000;
	*OLED_write = command; // Removed [0] from OLED_write
     b1c:	e0 e0       	ldi	r30, 0x00	; 0
     b1e:	f0 e1       	ldi	r31, 0x10	; 16
     b20:	8e ea       	ldi	r24, 0xAE	; 174
     b22:	80 83       	st	Z, r24
     b24:	81 ea       	ldi	r24, 0xA1	; 161
     b26:	80 83       	st	Z, r24
     b28:	8a ed       	ldi	r24, 0xDA	; 218
     b2a:	80 83       	st	Z, r24
     b2c:	82 e1       	ldi	r24, 0x12	; 18
     b2e:	80 83       	st	Z, r24
     b30:	88 ec       	ldi	r24, 0xC8	; 200
     b32:	80 83       	st	Z, r24
     b34:	88 ea       	ldi	r24, 0xA8	; 168
     b36:	80 83       	st	Z, r24
     b38:	8f e3       	ldi	r24, 0x3F	; 63
     b3a:	80 83       	st	Z, r24
     b3c:	85 ed       	ldi	r24, 0xD5	; 213
     b3e:	80 83       	st	Z, r24
     b40:	80 e8       	ldi	r24, 0x80	; 128
     b42:	80 83       	st	Z, r24
     b44:	81 e8       	ldi	r24, 0x81	; 129
     b46:	80 83       	st	Z, r24
     b48:	80 e5       	ldi	r24, 0x50	; 80
     b4a:	80 83       	st	Z, r24
     b4c:	89 ed       	ldi	r24, 0xD9	; 217
     b4e:	80 83       	st	Z, r24
     b50:	81 e2       	ldi	r24, 0x21	; 33
     b52:	80 83       	st	Z, r24
     b54:	80 e2       	ldi	r24, 0x20	; 32
     b56:	80 83       	st	Z, r24
     b58:	82 e0       	ldi	r24, 0x02	; 2
     b5a:	80 83       	st	Z, r24
     b5c:	8b ed       	ldi	r24, 0xDB	; 219
     b5e:	80 83       	st	Z, r24
     b60:	80 e3       	ldi	r24, 0x30	; 48
     b62:	80 83       	st	Z, r24
     b64:	8d ea       	ldi	r24, 0xAD	; 173
     b66:	80 83       	st	Z, r24
     b68:	10 82       	st	Z, r1
     b6a:	84 ea       	ldi	r24, 0xA4	; 164
     b6c:	80 83       	st	Z, r24
     b6e:	86 ea       	ldi	r24, 0xA6	; 166
     b70:	80 83       	st	Z, r24
     b72:	8f ea       	ldi	r24, 0xAF	; 175
     b74:	80 83       	st	Z, r24
     b76:	08 95       	ret

00000b78 <OLED_print>:
	OLED_write_command(0xa6); // set normal display
	OLED_write_command(0xaf); // display on
}

void OLED_print(char c){
	for(uint8_t i = 0; i < font_size; i++){
     b78:	90 91 a1 01 	lds	r25, 0x01A1	; 0x8001a1 <font_size>
     b7c:	99 23       	and	r25, r25
     b7e:	d1 f0       	breq	.+52     	; 0xbb4 <OLED_print+0x3c>
     b80:	90 e0       	ldi	r25, 0x00	; 0
		OLED_write_data(pgm_read_byte(&font5[c - 32][i]));
     b82:	48 2f       	mov	r20, r24
     b84:	50 e0       	ldi	r21, 0x00	; 0
     b86:	40 52       	subi	r20, 0x20	; 32
     b88:	51 09       	sbc	r21, r1
     b8a:	9a 01       	movw	r18, r20
     b8c:	22 0f       	add	r18, r18
     b8e:	33 1f       	adc	r19, r19
     b90:	22 0f       	add	r18, r18
     b92:	33 1f       	adc	r19, r19
     b94:	42 0f       	add	r20, r18
     b96:	53 1f       	adc	r21, r19
	*OLED_write = command; // Removed [0] from OLED_write
}

void OLED_write_data(char data){
	volatile char *OLED_write = (char *) 0x1200;
	*OLED_write = data; // Removed [0] from OLED_write
     b98:	a0 e0       	ldi	r26, 0x00	; 0
     b9a:	b2 e1       	ldi	r27, 0x12	; 18
	OLED_write_command(0xaf); // display on
}

void OLED_print(char c){
	for(uint8_t i = 0; i < font_size; i++){
		OLED_write_data(pgm_read_byte(&font5[c - 32][i]));
     b9c:	fa 01       	movw	r30, r20
     b9e:	e9 0f       	add	r30, r25
     ba0:	f1 1d       	adc	r31, r1
     ba2:	e0 59       	subi	r30, 0x90	; 144
     ba4:	ff 4f       	sbci	r31, 0xFF	; 255
     ba6:	e4 91       	lpm	r30, Z
	*OLED_write = command; // Removed [0] from OLED_write
}

void OLED_write_data(char data){
	volatile char *OLED_write = (char *) 0x1200;
	*OLED_write = data; // Removed [0] from OLED_write
     ba8:	ec 93       	st	X, r30
	OLED_write_command(0xa6); // set normal display
	OLED_write_command(0xaf); // display on
}

void OLED_print(char c){
	for(uint8_t i = 0; i < font_size; i++){
     baa:	9f 5f       	subi	r25, 0xFF	; 255
     bac:	20 91 a1 01 	lds	r18, 0x01A1	; 0x8001a1 <font_size>
     bb0:	92 17       	cp	r25, r18
     bb2:	a0 f3       	brcs	.-24     	; 0xb9c <OLED_print+0x24>
     bb4:	08 95       	ret

00000bb6 <OLED_printf>:
		OLED_write_data(pgm_read_byte(&font5[c - 32][i]));
	}
}

void OLED_printf(char str[]){
     bb6:	ef 92       	push	r14
     bb8:	ff 92       	push	r15
     bba:	0f 93       	push	r16
     bbc:	1f 93       	push	r17
     bbe:	cf 93       	push	r28
     bc0:	df 93       	push	r29
     bc2:	8c 01       	movw	r16, r24
     bc4:	7c 01       	movw	r14, r24
	for(int i = 0; i < strlen(str); i++){
     bc6:	c0 e0       	ldi	r28, 0x00	; 0
     bc8:	d0 e0       	ldi	r29, 0x00	; 0
     bca:	06 c0       	rjmp	.+12     	; 0xbd8 <OLED_printf+0x22>
		OLED_print(str[i]);
     bcc:	f7 01       	movw	r30, r14
     bce:	81 91       	ld	r24, Z+
     bd0:	7f 01       	movw	r14, r30
     bd2:	0e 94 bc 05 	call	0xb78	; 0xb78 <OLED_print>
		OLED_write_data(pgm_read_byte(&font5[c - 32][i]));
	}
}

void OLED_printf(char str[]){
	for(int i = 0; i < strlen(str); i++){
     bd6:	21 96       	adiw	r28, 0x01	; 1
     bd8:	f8 01       	movw	r30, r16
     bda:	01 90       	ld	r0, Z+
     bdc:	00 20       	and	r0, r0
     bde:	e9 f7       	brne	.-6      	; 0xbda <OLED_printf+0x24>
     be0:	31 97       	sbiw	r30, 0x01	; 1
     be2:	e0 1b       	sub	r30, r16
     be4:	f1 0b       	sbc	r31, r17
     be6:	ce 17       	cp	r28, r30
     be8:	df 07       	cpc	r29, r31
     bea:	80 f3       	brcs	.-32     	; 0xbcc <OLED_printf+0x16>
		OLED_print(str[i]);
	}
}
     bec:	df 91       	pop	r29
     bee:	cf 91       	pop	r28
     bf0:	1f 91       	pop	r17
     bf2:	0f 91       	pop	r16
     bf4:	ff 90       	pop	r15
     bf6:	ef 90       	pop	r14
     bf8:	08 95       	ret

00000bfa <OLED_pos>:

void OLED_pos(uint8_t page, uint8_t seg){
	// Cited lauritsriple
	//Go to page
	OLED_write_command(page | (0xb0));
     bfa:	80 6b       	ori	r24, 0xB0	; 176
#include "fonts.h"


void OLED_write_command(char  command){
	volatile char *OLED_write = (char *) 0x1000;
	*OLED_write = command; // Removed [0] from OLED_write
     bfc:	e0 e0       	ldi	r30, 0x00	; 0
     bfe:	f0 e1       	ldi	r31, 0x10	; 16
     c00:	80 83       	st	Z, r24
void OLED_pos(uint8_t page, uint8_t seg){
	// Cited lauritsriple
	//Go to page
	OLED_write_command(page | (0xb0));
	// Go to segment
	OLED_write_command(seg & 0x0f);
     c02:	86 2f       	mov	r24, r22
     c04:	8f 70       	andi	r24, 0x0F	; 15
#include "fonts.h"


void OLED_write_command(char  command){
	volatile char *OLED_write = (char *) 0x1000;
	*OLED_write = command; // Removed [0] from OLED_write
     c06:	80 83       	st	Z, r24
	// Cited lauritsriple
	//Go to page
	OLED_write_command(page | (0xb0));
	// Go to segment
	OLED_write_command(seg & 0x0f);
	OLED_write_command(((seg & 0xf0) >> 4) | (0x10));
     c08:	62 95       	swap	r22
     c0a:	6f 70       	andi	r22, 0x0F	; 15
     c0c:	60 61       	ori	r22, 0x10	; 16
#include "fonts.h"


void OLED_write_command(char  command){
	volatile char *OLED_write = (char *) 0x1000;
	*OLED_write = command; // Removed [0] from OLED_write
     c0e:	60 83       	st	Z, r22
     c10:	08 95       	ret

00000c12 <OLED_clear_line>:
	OLED_write_command(seg & 0x0f);
	OLED_write_command(((seg & 0xf0) >> 4) | (0x10));
}

void OLED_clear_line(uint8_t line){
	OLED_pos(line, 0);
     c12:	60 e0       	ldi	r22, 0x00	; 0
     c14:	0e 94 fd 05 	call	0xbfa	; 0xbfa <OLED_pos>
     c18:	80 e0       	ldi	r24, 0x00	; 0
	*OLED_write = command; // Removed [0] from OLED_write
}

void OLED_write_data(char data){
	volatile char *OLED_write = (char *) 0x1200;
	*OLED_write = data; // Removed [0] from OLED_write
     c1a:	e0 e0       	ldi	r30, 0x00	; 0
     c1c:	f2 e1       	ldi	r31, 0x12	; 18
     c1e:	10 82       	st	Z, r1
	OLED_write_command(((seg & 0xf0) >> 4) | (0x10));
}

void OLED_clear_line(uint8_t line){
	OLED_pos(line, 0);
	for (uint8_t i = 0; i < 128; i++){
     c20:	8f 5f       	subi	r24, 0xFF	; 255
     c22:	80 38       	cpi	r24, 0x80	; 128
     c24:	e1 f7       	brne	.-8      	; 0xc1e <OLED_clear_line+0xc>
		OLED_write_data(0x0);
	}
}
     c26:	08 95       	ret

00000c28 <OLED_clear_arrow>:

void OLED_clear_arrow(void){
     c28:	1f 93       	push	r17
     c2a:	cf 93       	push	r28
     c2c:	df 93       	push	r29
	OLED_pos(0,0);
     c2e:	60 e0       	ldi	r22, 0x00	; 0
     c30:	80 e0       	ldi	r24, 0x00	; 0
     c32:	0e 94 fd 05 	call	0xbfa	; 0xbfa <OLED_pos>
	for (uint8_t j = 0; j < 8; j++){
     c36:	10 e0       	ldi	r17, 0x00	; 0
	*OLED_write = command; // Removed [0] from OLED_write
}

void OLED_write_data(char data){
	volatile char *OLED_write = (char *) 0x1200;
	*OLED_write = data; // Removed [0] from OLED_write
     c38:	c0 e0       	ldi	r28, 0x00	; 0
     c3a:	d2 e1       	ldi	r29, 0x12	; 18
}

void OLED_clear_arrow(void){
	OLED_pos(0,0);
	for (uint8_t j = 0; j < 8; j++){
		OLED_pos(j,0);
     c3c:	60 e0       	ldi	r22, 0x00	; 0
     c3e:	81 2f       	mov	r24, r17
     c40:	0e 94 fd 05 	call	0xbfa	; 0xbfa <OLED_pos>
     c44:	8f e0       	ldi	r24, 0x0F	; 15
	*OLED_write = command; // Removed [0] from OLED_write
}

void OLED_write_data(char data){
	volatile char *OLED_write = (char *) 0x1200;
	*OLED_write = data; // Removed [0] from OLED_write
     c46:	18 82       	st	Y, r1
     c48:	81 50       	subi	r24, 0x01	; 1

void OLED_clear_arrow(void){
	OLED_pos(0,0);
	for (uint8_t j = 0; j < 8; j++){
		OLED_pos(j,0);
		for (uint8_t i = 0; i < 15; i++){
     c4a:	e9 f7       	brne	.-6      	; 0xc46 <OLED_clear_arrow+0x1e>
	}
}

void OLED_clear_arrow(void){
	OLED_pos(0,0);
	for (uint8_t j = 0; j < 8; j++){
     c4c:	1f 5f       	subi	r17, 0xFF	; 255
     c4e:	18 30       	cpi	r17, 0x08	; 8
     c50:	a9 f7       	brne	.-22     	; 0xc3c <OLED_clear_arrow+0x14>
		OLED_pos(j,0);
		for (uint8_t i = 0; i < 15; i++){
			OLED_write_data(0x0);
		}
	}
}
     c52:	df 91       	pop	r29
     c54:	cf 91       	pop	r28
     c56:	1f 91       	pop	r17
     c58:	08 95       	ret

00000c5a <OLED_clear_all>:

void OLED_clear_all(){
     c5a:	1f 93       	push	r17
     c5c:	cf 93       	push	r28
     c5e:	df 93       	push	r29
		OLED_pos(0,0);
     c60:	60 e0       	ldi	r22, 0x00	; 0
     c62:	80 e0       	ldi	r24, 0x00	; 0
     c64:	0e 94 fd 05 	call	0xbfa	; 0xbfa <OLED_pos>
		for (uint8_t j = 0; j < 8; j++){
     c68:	10 e0       	ldi	r17, 0x00	; 0
	*OLED_write = command; // Removed [0] from OLED_write
}

void OLED_write_data(char data){
	volatile char *OLED_write = (char *) 0x1200;
	*OLED_write = data; // Removed [0] from OLED_write
     c6a:	c0 e0       	ldi	r28, 0x00	; 0
     c6c:	d2 e1       	ldi	r29, 0x12	; 18
}

void OLED_clear_all(){
		OLED_pos(0,0);
		for (uint8_t j = 0; j < 8; j++){
			OLED_pos(j,0);
     c6e:	60 e0       	ldi	r22, 0x00	; 0
     c70:	81 2f       	mov	r24, r17
     c72:	0e 94 fd 05 	call	0xbfa	; 0xbfa <OLED_pos>
     c76:	80 e0       	ldi	r24, 0x00	; 0
	*OLED_write = command; // Removed [0] from OLED_write
}

void OLED_write_data(char data){
	volatile char *OLED_write = (char *) 0x1200;
	*OLED_write = data; // Removed [0] from OLED_write
     c78:	18 82       	st	Y, r1

void OLED_clear_all(){
		OLED_pos(0,0);
		for (uint8_t j = 0; j < 8; j++){
			OLED_pos(j,0);
			for (uint8_t i = 0; i < 128; i++){
     c7a:	8f 5f       	subi	r24, 0xFF	; 255
     c7c:	80 38       	cpi	r24, 0x80	; 128
     c7e:	e1 f7       	brne	.-8      	; 0xc78 <OLED_clear_all+0x1e>
	}
}

void OLED_clear_all(){
		OLED_pos(0,0);
		for (uint8_t j = 0; j < 8; j++){
     c80:	1f 5f       	subi	r17, 0xFF	; 255
     c82:	18 30       	cpi	r17, 0x08	; 8
     c84:	a1 f7       	brne	.-24     	; 0xc6e <OLED_clear_all+0x14>
			OLED_pos(j,0);
			for (uint8_t i = 0; i < 128; i++){
				OLED_write_data(0x0);
			}
		}
}
     c86:	df 91       	pop	r29
     c88:	cf 91       	pop	r28
     c8a:	1f 91       	pop	r17
     c8c:	08 95       	ret

00000c8e <SPI_MasterInit>:
#include "config.h"
#include "SPI.h"

void SPI_MasterInit(void){
	// Set MOSI and SCK output, all others input 
	set_bit(DDRB, SPI_MOSI);
     c8e:	bd 9a       	sbi	0x17, 5	; 23
	set_bit(DDRB, SPI_SCK);
     c90:	bf 9a       	sbi	0x17, 7	; 23
	set_bit(DDRB, SPI_CAN_SS);
     c92:	bc 9a       	sbi	0x17, 4	; 23
	// Enable SPI, Master, set clock rate fck/16, SPI MODE 0
	SPCR = (1<<SPE)|(1<<MSTR)|(1<<SPR0);
     c94:	81 e5       	ldi	r24, 0x51	; 81
     c96:	8d b9       	out	0x0d, r24	; 13
     c98:	08 95       	ret

00000c9a <SPI_transmit>:
}

void SPI_transmit(char cData){
	// Start transmission 
	SPDR = cData;
     c9a:	8f b9       	out	0x0f, r24	; 15
	// Wait for transmission complete 
	while(!(SPSR & (1<<SPIF)));
     c9c:	77 9b       	sbis	0x0e, 7	; 14
     c9e:	fe cf       	rjmp	.-4      	; 0xc9c <SPI_transmit+0x2>
}
     ca0:	08 95       	ret

00000ca2 <SPI_recive>:

char SPI_recive(void){
	//Wait for transmission to complete 
	SPDR = 0x00;
     ca2:	1f b8       	out	0x0f, r1	; 15
	while(!(SPSR & (1<<SPIF)));
     ca4:	77 9b       	sbis	0x0e, 7	; 14
     ca6:	fe cf       	rjmp	.-4      	; 0xca4 <SPI_recive+0x2>
	return SPDR;
     ca8:	8f b1       	in	r24, 0x0f	; 15
}
     caa:	08 95       	ret

00000cac <SPI_enslaved_CAN>:

void SPI_enslaved_CAN(void){
	clear_bit(PORTB, SPI_CAN_SS);
     cac:	c4 98       	cbi	0x18, 4	; 24
     cae:	08 95       	ret

00000cb0 <SPI_release_CAN>:
}

void SPI_release_CAN(void){
	set_bit(PORTB, SPI_CAN_SS); 
     cb0:	c4 9a       	sbi	0x18, 4	; 24
     cb2:	08 95       	ret

00000cb4 <SRAM_init>:


#include "SRAM.h"

void SRAM_init(){
	set_bit(MCUCR,SRE); // Setting SRE enables external SRAM with ALE, WR, RD. Override all other pin settings. Writing to zero disables. 
     cb4:	85 b7       	in	r24, 0x35	; 53
     cb6:	80 68       	ori	r24, 0x80	; 128
     cb8:	85 bf       	out	0x35, r24	; 53
	set_bit(EMCUCR, SRW01); // Wait two cycles during Read/Write
     cba:	86 b7       	in	r24, 0x36	; 54
     cbc:	88 60       	ori	r24, 0x08	; 8
     cbe:	86 bf       	out	0x36, r24	; 54
	set_bit(SFIOR,XMM2); // Mask out JTAG. PC4-PC7. 
     cc0:	80 b7       	in	r24, 0x30	; 48
     cc2:	80 62       	ori	r24, 0x20	; 32
     cc4:	80 bf       	out	0x30, r24	; 48
     cc6:	08 95       	ret

00000cc8 <UART_transmit>:
 */ 

#include "UART.h"

void UART_transmit(unsigned char data){
	loop_until_bit_is_set(UCSR0A, UDRE0);
     cc8:	5d 9b       	sbis	0x0b, 5	; 11
     cca:	fe cf       	rjmp	.-4      	; 0xcc8 <UART_transmit>
	UDR0 = data;
     ccc:	8c b9       	out	0x0c, r24	; 12
     cce:	08 95       	ret

00000cd0 <UART_receive>:
}

unsigned char UART_receive(void){
	loop_until_bit_is_set(UCSR0A, RXC0);
     cd0:	5f 9b       	sbis	0x0b, 7	; 11
     cd2:	fe cf       	rjmp	.-4      	; 0xcd0 <UART_receive>
	return UDR0;
     cd4:	8c b1       	in	r24, 0x0c	; 12
}
     cd6:	08 95       	ret

00000cd8 <UART_init>:

void UART_init(){
	
	// UBRR : USART Baud rate register
	unsigned int ubrr = UBRR;
	UBRR0H = (unsigned char) (ubrr>>8);
     cd8:	10 bc       	out	0x20, r1	; 32
	UBRR0L = (unsigned char) ubrr;
     cda:	8f e1       	ldi	r24, 0x1F	; 31
     cdc:	89 b9       	out	0x09, r24	; 9
	
	//stop bit, set frame format 8bit packages
	// USBS0 : Stop bit register
	// UCSZ00 set 8 bit format
	UCSR0C = (1<<URSEL0)|(1 << USBS0) | (3 << UCSZ00);
     cde:	8e e8       	ldi	r24, 0x8E	; 142
     ce0:	80 bd       	out	0x20, r24	; 32
	
	// Enable Transmitter and Receiver
	UCSR0B = (1<<TXEN0)|(1<<RXEN0);
     ce2:	88 e1       	ldi	r24, 0x18	; 24
     ce4:	8a b9       	out	0x0a, r24	; 10
	
	fdevopen(UART_transmit, UART_receive);
     ce6:	68 e6       	ldi	r22, 0x68	; 104
     ce8:	76 e0       	ldi	r23, 0x06	; 6
     cea:	84 e6       	ldi	r24, 0x64	; 100
     cec:	96 e0       	ldi	r25, 0x06	; 6
     cee:	0e 94 1f 08 	call	0x103e	; 0x103e <fdevopen>
     cf2:	08 95       	ret

00000cf4 <__subsf3>:
     cf4:	50 58       	subi	r21, 0x80	; 128

00000cf6 <__addsf3>:
     cf6:	bb 27       	eor	r27, r27
     cf8:	aa 27       	eor	r26, r26
     cfa:	0e 94 92 06 	call	0xd24	; 0xd24 <__addsf3x>
     cfe:	0c 94 dc 07 	jmp	0xfb8	; 0xfb8 <__fp_round>
     d02:	0e 94 ce 07 	call	0xf9c	; 0xf9c <__fp_pscA>
     d06:	38 f0       	brcs	.+14     	; 0xd16 <__addsf3+0x20>
     d08:	0e 94 d5 07 	call	0xfaa	; 0xfaa <__fp_pscB>
     d0c:	20 f0       	brcs	.+8      	; 0xd16 <__addsf3+0x20>
     d0e:	39 f4       	brne	.+14     	; 0xd1e <__addsf3+0x28>
     d10:	9f 3f       	cpi	r25, 0xFF	; 255
     d12:	19 f4       	brne	.+6      	; 0xd1a <__addsf3+0x24>
     d14:	26 f4       	brtc	.+8      	; 0xd1e <__addsf3+0x28>
     d16:	0c 94 cb 07 	jmp	0xf96	; 0xf96 <__fp_nan>
     d1a:	0e f4       	brtc	.+2      	; 0xd1e <__addsf3+0x28>
     d1c:	e0 95       	com	r30
     d1e:	e7 fb       	bst	r30, 7
     d20:	0c 94 c5 07 	jmp	0xf8a	; 0xf8a <__fp_inf>

00000d24 <__addsf3x>:
     d24:	e9 2f       	mov	r30, r25
     d26:	0e 94 ed 07 	call	0xfda	; 0xfda <__fp_split3>
     d2a:	58 f3       	brcs	.-42     	; 0xd02 <__addsf3+0xc>
     d2c:	ba 17       	cp	r27, r26
     d2e:	62 07       	cpc	r22, r18
     d30:	73 07       	cpc	r23, r19
     d32:	84 07       	cpc	r24, r20
     d34:	95 07       	cpc	r25, r21
     d36:	20 f0       	brcs	.+8      	; 0xd40 <__addsf3x+0x1c>
     d38:	79 f4       	brne	.+30     	; 0xd58 <__addsf3x+0x34>
     d3a:	a6 f5       	brtc	.+104    	; 0xda4 <__addsf3x+0x80>
     d3c:	0c 94 0f 08 	jmp	0x101e	; 0x101e <__fp_zero>
     d40:	0e f4       	brtc	.+2      	; 0xd44 <__addsf3x+0x20>
     d42:	e0 95       	com	r30
     d44:	0b 2e       	mov	r0, r27
     d46:	ba 2f       	mov	r27, r26
     d48:	a0 2d       	mov	r26, r0
     d4a:	0b 01       	movw	r0, r22
     d4c:	b9 01       	movw	r22, r18
     d4e:	90 01       	movw	r18, r0
     d50:	0c 01       	movw	r0, r24
     d52:	ca 01       	movw	r24, r20
     d54:	a0 01       	movw	r20, r0
     d56:	11 24       	eor	r1, r1
     d58:	ff 27       	eor	r31, r31
     d5a:	59 1b       	sub	r21, r25
     d5c:	99 f0       	breq	.+38     	; 0xd84 <__addsf3x+0x60>
     d5e:	59 3f       	cpi	r21, 0xF9	; 249
     d60:	50 f4       	brcc	.+20     	; 0xd76 <__addsf3x+0x52>
     d62:	50 3e       	cpi	r21, 0xE0	; 224
     d64:	68 f1       	brcs	.+90     	; 0xdc0 <__addsf3x+0x9c>
     d66:	1a 16       	cp	r1, r26
     d68:	f0 40       	sbci	r31, 0x00	; 0
     d6a:	a2 2f       	mov	r26, r18
     d6c:	23 2f       	mov	r18, r19
     d6e:	34 2f       	mov	r19, r20
     d70:	44 27       	eor	r20, r20
     d72:	58 5f       	subi	r21, 0xF8	; 248
     d74:	f3 cf       	rjmp	.-26     	; 0xd5c <__addsf3x+0x38>
     d76:	46 95       	lsr	r20
     d78:	37 95       	ror	r19
     d7a:	27 95       	ror	r18
     d7c:	a7 95       	ror	r26
     d7e:	f0 40       	sbci	r31, 0x00	; 0
     d80:	53 95       	inc	r21
     d82:	c9 f7       	brne	.-14     	; 0xd76 <__addsf3x+0x52>
     d84:	7e f4       	brtc	.+30     	; 0xda4 <__addsf3x+0x80>
     d86:	1f 16       	cp	r1, r31
     d88:	ba 0b       	sbc	r27, r26
     d8a:	62 0b       	sbc	r22, r18
     d8c:	73 0b       	sbc	r23, r19
     d8e:	84 0b       	sbc	r24, r20
     d90:	ba f0       	brmi	.+46     	; 0xdc0 <__addsf3x+0x9c>
     d92:	91 50       	subi	r25, 0x01	; 1
     d94:	a1 f0       	breq	.+40     	; 0xdbe <__addsf3x+0x9a>
     d96:	ff 0f       	add	r31, r31
     d98:	bb 1f       	adc	r27, r27
     d9a:	66 1f       	adc	r22, r22
     d9c:	77 1f       	adc	r23, r23
     d9e:	88 1f       	adc	r24, r24
     da0:	c2 f7       	brpl	.-16     	; 0xd92 <__addsf3x+0x6e>
     da2:	0e c0       	rjmp	.+28     	; 0xdc0 <__addsf3x+0x9c>
     da4:	ba 0f       	add	r27, r26
     da6:	62 1f       	adc	r22, r18
     da8:	73 1f       	adc	r23, r19
     daa:	84 1f       	adc	r24, r20
     dac:	48 f4       	brcc	.+18     	; 0xdc0 <__addsf3x+0x9c>
     dae:	87 95       	ror	r24
     db0:	77 95       	ror	r23
     db2:	67 95       	ror	r22
     db4:	b7 95       	ror	r27
     db6:	f7 95       	ror	r31
     db8:	9e 3f       	cpi	r25, 0xFE	; 254
     dba:	08 f0       	brcs	.+2      	; 0xdbe <__addsf3x+0x9a>
     dbc:	b0 cf       	rjmp	.-160    	; 0xd1e <__addsf3+0x28>
     dbe:	93 95       	inc	r25
     dc0:	88 0f       	add	r24, r24
     dc2:	08 f0       	brcs	.+2      	; 0xdc6 <__addsf3x+0xa2>
     dc4:	99 27       	eor	r25, r25
     dc6:	ee 0f       	add	r30, r30
     dc8:	97 95       	ror	r25
     dca:	87 95       	ror	r24
     dcc:	08 95       	ret

00000dce <__divsf3>:
     dce:	0e 94 fb 06 	call	0xdf6	; 0xdf6 <__divsf3x>
     dd2:	0c 94 dc 07 	jmp	0xfb8	; 0xfb8 <__fp_round>
     dd6:	0e 94 d5 07 	call	0xfaa	; 0xfaa <__fp_pscB>
     dda:	58 f0       	brcs	.+22     	; 0xdf2 <__divsf3+0x24>
     ddc:	0e 94 ce 07 	call	0xf9c	; 0xf9c <__fp_pscA>
     de0:	40 f0       	brcs	.+16     	; 0xdf2 <__divsf3+0x24>
     de2:	29 f4       	brne	.+10     	; 0xdee <__divsf3+0x20>
     de4:	5f 3f       	cpi	r21, 0xFF	; 255
     de6:	29 f0       	breq	.+10     	; 0xdf2 <__divsf3+0x24>
     de8:	0c 94 c5 07 	jmp	0xf8a	; 0xf8a <__fp_inf>
     dec:	51 11       	cpse	r21, r1
     dee:	0c 94 10 08 	jmp	0x1020	; 0x1020 <__fp_szero>
     df2:	0c 94 cb 07 	jmp	0xf96	; 0xf96 <__fp_nan>

00000df6 <__divsf3x>:
     df6:	0e 94 ed 07 	call	0xfda	; 0xfda <__fp_split3>
     dfa:	68 f3       	brcs	.-38     	; 0xdd6 <__divsf3+0x8>

00000dfc <__divsf3_pse>:
     dfc:	99 23       	and	r25, r25
     dfe:	b1 f3       	breq	.-20     	; 0xdec <__divsf3+0x1e>
     e00:	55 23       	and	r21, r21
     e02:	91 f3       	breq	.-28     	; 0xde8 <__divsf3+0x1a>
     e04:	95 1b       	sub	r25, r21
     e06:	55 0b       	sbc	r21, r21
     e08:	bb 27       	eor	r27, r27
     e0a:	aa 27       	eor	r26, r26
     e0c:	62 17       	cp	r22, r18
     e0e:	73 07       	cpc	r23, r19
     e10:	84 07       	cpc	r24, r20
     e12:	38 f0       	brcs	.+14     	; 0xe22 <__divsf3_pse+0x26>
     e14:	9f 5f       	subi	r25, 0xFF	; 255
     e16:	5f 4f       	sbci	r21, 0xFF	; 255
     e18:	22 0f       	add	r18, r18
     e1a:	33 1f       	adc	r19, r19
     e1c:	44 1f       	adc	r20, r20
     e1e:	aa 1f       	adc	r26, r26
     e20:	a9 f3       	breq	.-22     	; 0xe0c <__divsf3_pse+0x10>
     e22:	35 d0       	rcall	.+106    	; 0xe8e <__divsf3_pse+0x92>
     e24:	0e 2e       	mov	r0, r30
     e26:	3a f0       	brmi	.+14     	; 0xe36 <__divsf3_pse+0x3a>
     e28:	e0 e8       	ldi	r30, 0x80	; 128
     e2a:	32 d0       	rcall	.+100    	; 0xe90 <__divsf3_pse+0x94>
     e2c:	91 50       	subi	r25, 0x01	; 1
     e2e:	50 40       	sbci	r21, 0x00	; 0
     e30:	e6 95       	lsr	r30
     e32:	00 1c       	adc	r0, r0
     e34:	ca f7       	brpl	.-14     	; 0xe28 <__divsf3_pse+0x2c>
     e36:	2b d0       	rcall	.+86     	; 0xe8e <__divsf3_pse+0x92>
     e38:	fe 2f       	mov	r31, r30
     e3a:	29 d0       	rcall	.+82     	; 0xe8e <__divsf3_pse+0x92>
     e3c:	66 0f       	add	r22, r22
     e3e:	77 1f       	adc	r23, r23
     e40:	88 1f       	adc	r24, r24
     e42:	bb 1f       	adc	r27, r27
     e44:	26 17       	cp	r18, r22
     e46:	37 07       	cpc	r19, r23
     e48:	48 07       	cpc	r20, r24
     e4a:	ab 07       	cpc	r26, r27
     e4c:	b0 e8       	ldi	r27, 0x80	; 128
     e4e:	09 f0       	breq	.+2      	; 0xe52 <__divsf3_pse+0x56>
     e50:	bb 0b       	sbc	r27, r27
     e52:	80 2d       	mov	r24, r0
     e54:	bf 01       	movw	r22, r30
     e56:	ff 27       	eor	r31, r31
     e58:	93 58       	subi	r25, 0x83	; 131
     e5a:	5f 4f       	sbci	r21, 0xFF	; 255
     e5c:	3a f0       	brmi	.+14     	; 0xe6c <__divsf3_pse+0x70>
     e5e:	9e 3f       	cpi	r25, 0xFE	; 254
     e60:	51 05       	cpc	r21, r1
     e62:	78 f0       	brcs	.+30     	; 0xe82 <__divsf3_pse+0x86>
     e64:	0c 94 c5 07 	jmp	0xf8a	; 0xf8a <__fp_inf>
     e68:	0c 94 10 08 	jmp	0x1020	; 0x1020 <__fp_szero>
     e6c:	5f 3f       	cpi	r21, 0xFF	; 255
     e6e:	e4 f3       	brlt	.-8      	; 0xe68 <__divsf3_pse+0x6c>
     e70:	98 3e       	cpi	r25, 0xE8	; 232
     e72:	d4 f3       	brlt	.-12     	; 0xe68 <__divsf3_pse+0x6c>
     e74:	86 95       	lsr	r24
     e76:	77 95       	ror	r23
     e78:	67 95       	ror	r22
     e7a:	b7 95       	ror	r27
     e7c:	f7 95       	ror	r31
     e7e:	9f 5f       	subi	r25, 0xFF	; 255
     e80:	c9 f7       	brne	.-14     	; 0xe74 <__divsf3_pse+0x78>
     e82:	88 0f       	add	r24, r24
     e84:	91 1d       	adc	r25, r1
     e86:	96 95       	lsr	r25
     e88:	87 95       	ror	r24
     e8a:	97 f9       	bld	r25, 7
     e8c:	08 95       	ret
     e8e:	e1 e0       	ldi	r30, 0x01	; 1
     e90:	66 0f       	add	r22, r22
     e92:	77 1f       	adc	r23, r23
     e94:	88 1f       	adc	r24, r24
     e96:	bb 1f       	adc	r27, r27
     e98:	62 17       	cp	r22, r18
     e9a:	73 07       	cpc	r23, r19
     e9c:	84 07       	cpc	r24, r20
     e9e:	ba 07       	cpc	r27, r26
     ea0:	20 f0       	brcs	.+8      	; 0xeaa <__divsf3_pse+0xae>
     ea2:	62 1b       	sub	r22, r18
     ea4:	73 0b       	sbc	r23, r19
     ea6:	84 0b       	sbc	r24, r20
     ea8:	ba 0b       	sbc	r27, r26
     eaa:	ee 1f       	adc	r30, r30
     eac:	88 f7       	brcc	.-30     	; 0xe90 <__divsf3_pse+0x94>
     eae:	e0 95       	com	r30
     eb0:	08 95       	ret

00000eb2 <__fixunssfsi>:
     eb2:	0e 94 f5 07 	call	0xfea	; 0xfea <__fp_splitA>
     eb6:	88 f0       	brcs	.+34     	; 0xeda <__fixunssfsi+0x28>
     eb8:	9f 57       	subi	r25, 0x7F	; 127
     eba:	98 f0       	brcs	.+38     	; 0xee2 <__fixunssfsi+0x30>
     ebc:	b9 2f       	mov	r27, r25
     ebe:	99 27       	eor	r25, r25
     ec0:	b7 51       	subi	r27, 0x17	; 23
     ec2:	b0 f0       	brcs	.+44     	; 0xef0 <__fixunssfsi+0x3e>
     ec4:	e1 f0       	breq	.+56     	; 0xefe <__fixunssfsi+0x4c>
     ec6:	66 0f       	add	r22, r22
     ec8:	77 1f       	adc	r23, r23
     eca:	88 1f       	adc	r24, r24
     ecc:	99 1f       	adc	r25, r25
     ece:	1a f0       	brmi	.+6      	; 0xed6 <__fixunssfsi+0x24>
     ed0:	ba 95       	dec	r27
     ed2:	c9 f7       	brne	.-14     	; 0xec6 <__fixunssfsi+0x14>
     ed4:	14 c0       	rjmp	.+40     	; 0xefe <__fixunssfsi+0x4c>
     ed6:	b1 30       	cpi	r27, 0x01	; 1
     ed8:	91 f0       	breq	.+36     	; 0xefe <__fixunssfsi+0x4c>
     eda:	0e 94 0f 08 	call	0x101e	; 0x101e <__fp_zero>
     ede:	b1 e0       	ldi	r27, 0x01	; 1
     ee0:	08 95       	ret
     ee2:	0c 94 0f 08 	jmp	0x101e	; 0x101e <__fp_zero>
     ee6:	67 2f       	mov	r22, r23
     ee8:	78 2f       	mov	r23, r24
     eea:	88 27       	eor	r24, r24
     eec:	b8 5f       	subi	r27, 0xF8	; 248
     eee:	39 f0       	breq	.+14     	; 0xefe <__fixunssfsi+0x4c>
     ef0:	b9 3f       	cpi	r27, 0xF9	; 249
     ef2:	cc f3       	brlt	.-14     	; 0xee6 <__fixunssfsi+0x34>
     ef4:	86 95       	lsr	r24
     ef6:	77 95       	ror	r23
     ef8:	67 95       	ror	r22
     efa:	b3 95       	inc	r27
     efc:	d9 f7       	brne	.-10     	; 0xef4 <__fixunssfsi+0x42>
     efe:	3e f4       	brtc	.+14     	; 0xf0e <__fixunssfsi+0x5c>
     f00:	90 95       	com	r25
     f02:	80 95       	com	r24
     f04:	70 95       	com	r23
     f06:	61 95       	neg	r22
     f08:	7f 4f       	sbci	r23, 0xFF	; 255
     f0a:	8f 4f       	sbci	r24, 0xFF	; 255
     f0c:	9f 4f       	sbci	r25, 0xFF	; 255
     f0e:	08 95       	ret

00000f10 <__floatunsisf>:
     f10:	e8 94       	clt
     f12:	09 c0       	rjmp	.+18     	; 0xf26 <__floatsisf+0x12>

00000f14 <__floatsisf>:
     f14:	97 fb       	bst	r25, 7
     f16:	3e f4       	brtc	.+14     	; 0xf26 <__floatsisf+0x12>
     f18:	90 95       	com	r25
     f1a:	80 95       	com	r24
     f1c:	70 95       	com	r23
     f1e:	61 95       	neg	r22
     f20:	7f 4f       	sbci	r23, 0xFF	; 255
     f22:	8f 4f       	sbci	r24, 0xFF	; 255
     f24:	9f 4f       	sbci	r25, 0xFF	; 255
     f26:	99 23       	and	r25, r25
     f28:	a9 f0       	breq	.+42     	; 0xf54 <__floatsisf+0x40>
     f2a:	f9 2f       	mov	r31, r25
     f2c:	96 e9       	ldi	r25, 0x96	; 150
     f2e:	bb 27       	eor	r27, r27
     f30:	93 95       	inc	r25
     f32:	f6 95       	lsr	r31
     f34:	87 95       	ror	r24
     f36:	77 95       	ror	r23
     f38:	67 95       	ror	r22
     f3a:	b7 95       	ror	r27
     f3c:	f1 11       	cpse	r31, r1
     f3e:	f8 cf       	rjmp	.-16     	; 0xf30 <__floatsisf+0x1c>
     f40:	fa f4       	brpl	.+62     	; 0xf80 <__floatsisf+0x6c>
     f42:	bb 0f       	add	r27, r27
     f44:	11 f4       	brne	.+4      	; 0xf4a <__floatsisf+0x36>
     f46:	60 ff       	sbrs	r22, 0
     f48:	1b c0       	rjmp	.+54     	; 0xf80 <__floatsisf+0x6c>
     f4a:	6f 5f       	subi	r22, 0xFF	; 255
     f4c:	7f 4f       	sbci	r23, 0xFF	; 255
     f4e:	8f 4f       	sbci	r24, 0xFF	; 255
     f50:	9f 4f       	sbci	r25, 0xFF	; 255
     f52:	16 c0       	rjmp	.+44     	; 0xf80 <__floatsisf+0x6c>
     f54:	88 23       	and	r24, r24
     f56:	11 f0       	breq	.+4      	; 0xf5c <__floatsisf+0x48>
     f58:	96 e9       	ldi	r25, 0x96	; 150
     f5a:	11 c0       	rjmp	.+34     	; 0xf7e <__floatsisf+0x6a>
     f5c:	77 23       	and	r23, r23
     f5e:	21 f0       	breq	.+8      	; 0xf68 <__floatsisf+0x54>
     f60:	9e e8       	ldi	r25, 0x8E	; 142
     f62:	87 2f       	mov	r24, r23
     f64:	76 2f       	mov	r23, r22
     f66:	05 c0       	rjmp	.+10     	; 0xf72 <__floatsisf+0x5e>
     f68:	66 23       	and	r22, r22
     f6a:	71 f0       	breq	.+28     	; 0xf88 <__floatsisf+0x74>
     f6c:	96 e8       	ldi	r25, 0x86	; 134
     f6e:	86 2f       	mov	r24, r22
     f70:	70 e0       	ldi	r23, 0x00	; 0
     f72:	60 e0       	ldi	r22, 0x00	; 0
     f74:	2a f0       	brmi	.+10     	; 0xf80 <__floatsisf+0x6c>
     f76:	9a 95       	dec	r25
     f78:	66 0f       	add	r22, r22
     f7a:	77 1f       	adc	r23, r23
     f7c:	88 1f       	adc	r24, r24
     f7e:	da f7       	brpl	.-10     	; 0xf76 <__floatsisf+0x62>
     f80:	88 0f       	add	r24, r24
     f82:	96 95       	lsr	r25
     f84:	87 95       	ror	r24
     f86:	97 f9       	bld	r25, 7
     f88:	08 95       	ret

00000f8a <__fp_inf>:
     f8a:	97 f9       	bld	r25, 7
     f8c:	9f 67       	ori	r25, 0x7F	; 127
     f8e:	80 e8       	ldi	r24, 0x80	; 128
     f90:	70 e0       	ldi	r23, 0x00	; 0
     f92:	60 e0       	ldi	r22, 0x00	; 0
     f94:	08 95       	ret

00000f96 <__fp_nan>:
     f96:	9f ef       	ldi	r25, 0xFF	; 255
     f98:	80 ec       	ldi	r24, 0xC0	; 192
     f9a:	08 95       	ret

00000f9c <__fp_pscA>:
     f9c:	00 24       	eor	r0, r0
     f9e:	0a 94       	dec	r0
     fa0:	16 16       	cp	r1, r22
     fa2:	17 06       	cpc	r1, r23
     fa4:	18 06       	cpc	r1, r24
     fa6:	09 06       	cpc	r0, r25
     fa8:	08 95       	ret

00000faa <__fp_pscB>:
     faa:	00 24       	eor	r0, r0
     fac:	0a 94       	dec	r0
     fae:	12 16       	cp	r1, r18
     fb0:	13 06       	cpc	r1, r19
     fb2:	14 06       	cpc	r1, r20
     fb4:	05 06       	cpc	r0, r21
     fb6:	08 95       	ret

00000fb8 <__fp_round>:
     fb8:	09 2e       	mov	r0, r25
     fba:	03 94       	inc	r0
     fbc:	00 0c       	add	r0, r0
     fbe:	11 f4       	brne	.+4      	; 0xfc4 <__fp_round+0xc>
     fc0:	88 23       	and	r24, r24
     fc2:	52 f0       	brmi	.+20     	; 0xfd8 <__fp_round+0x20>
     fc4:	bb 0f       	add	r27, r27
     fc6:	40 f4       	brcc	.+16     	; 0xfd8 <__fp_round+0x20>
     fc8:	bf 2b       	or	r27, r31
     fca:	11 f4       	brne	.+4      	; 0xfd0 <__fp_round+0x18>
     fcc:	60 ff       	sbrs	r22, 0
     fce:	04 c0       	rjmp	.+8      	; 0xfd8 <__fp_round+0x20>
     fd0:	6f 5f       	subi	r22, 0xFF	; 255
     fd2:	7f 4f       	sbci	r23, 0xFF	; 255
     fd4:	8f 4f       	sbci	r24, 0xFF	; 255
     fd6:	9f 4f       	sbci	r25, 0xFF	; 255
     fd8:	08 95       	ret

00000fda <__fp_split3>:
     fda:	57 fd       	sbrc	r21, 7
     fdc:	90 58       	subi	r25, 0x80	; 128
     fde:	44 0f       	add	r20, r20
     fe0:	55 1f       	adc	r21, r21
     fe2:	59 f0       	breq	.+22     	; 0xffa <__fp_splitA+0x10>
     fe4:	5f 3f       	cpi	r21, 0xFF	; 255
     fe6:	71 f0       	breq	.+28     	; 0x1004 <__fp_splitA+0x1a>
     fe8:	47 95       	ror	r20

00000fea <__fp_splitA>:
     fea:	88 0f       	add	r24, r24
     fec:	97 fb       	bst	r25, 7
     fee:	99 1f       	adc	r25, r25
     ff0:	61 f0       	breq	.+24     	; 0x100a <__fp_splitA+0x20>
     ff2:	9f 3f       	cpi	r25, 0xFF	; 255
     ff4:	79 f0       	breq	.+30     	; 0x1014 <__fp_splitA+0x2a>
     ff6:	87 95       	ror	r24
     ff8:	08 95       	ret
     ffa:	12 16       	cp	r1, r18
     ffc:	13 06       	cpc	r1, r19
     ffe:	14 06       	cpc	r1, r20
    1000:	55 1f       	adc	r21, r21
    1002:	f2 cf       	rjmp	.-28     	; 0xfe8 <__fp_split3+0xe>
    1004:	46 95       	lsr	r20
    1006:	f1 df       	rcall	.-30     	; 0xfea <__fp_splitA>
    1008:	08 c0       	rjmp	.+16     	; 0x101a <__fp_splitA+0x30>
    100a:	16 16       	cp	r1, r22
    100c:	17 06       	cpc	r1, r23
    100e:	18 06       	cpc	r1, r24
    1010:	99 1f       	adc	r25, r25
    1012:	f1 cf       	rjmp	.-30     	; 0xff6 <__fp_splitA+0xc>
    1014:	86 95       	lsr	r24
    1016:	71 05       	cpc	r23, r1
    1018:	61 05       	cpc	r22, r1
    101a:	08 94       	sec
    101c:	08 95       	ret

0000101e <__fp_zero>:
    101e:	e8 94       	clt

00001020 <__fp_szero>:
    1020:	bb 27       	eor	r27, r27
    1022:	66 27       	eor	r22, r22
    1024:	77 27       	eor	r23, r23
    1026:	cb 01       	movw	r24, r22
    1028:	97 f9       	bld	r25, 7
    102a:	08 95       	ret

0000102c <strcmp>:
    102c:	fb 01       	movw	r30, r22
    102e:	dc 01       	movw	r26, r24
    1030:	8d 91       	ld	r24, X+
    1032:	01 90       	ld	r0, Z+
    1034:	80 19       	sub	r24, r0
    1036:	01 10       	cpse	r0, r1
    1038:	d9 f3       	breq	.-10     	; 0x1030 <strcmp+0x4>
    103a:	99 0b       	sbc	r25, r25
    103c:	08 95       	ret

0000103e <fdevopen>:
    103e:	0f 93       	push	r16
    1040:	1f 93       	push	r17
    1042:	cf 93       	push	r28
    1044:	df 93       	push	r29
    1046:	00 97       	sbiw	r24, 0x00	; 0
    1048:	31 f4       	brne	.+12     	; 0x1056 <fdevopen+0x18>
    104a:	61 15       	cp	r22, r1
    104c:	71 05       	cpc	r23, r1
    104e:	19 f4       	brne	.+6      	; 0x1056 <fdevopen+0x18>
    1050:	80 e0       	ldi	r24, 0x00	; 0
    1052:	90 e0       	ldi	r25, 0x00	; 0
    1054:	3a c0       	rjmp	.+116    	; 0x10ca <fdevopen+0x8c>
    1056:	8b 01       	movw	r16, r22
    1058:	ec 01       	movw	r28, r24
    105a:	6e e0       	ldi	r22, 0x0E	; 14
    105c:	70 e0       	ldi	r23, 0x00	; 0
    105e:	81 e0       	ldi	r24, 0x01	; 1
    1060:	90 e0       	ldi	r25, 0x00	; 0
    1062:	0e 94 9d 0a 	call	0x153a	; 0x153a <calloc>
    1066:	fc 01       	movw	r30, r24
    1068:	89 2b       	or	r24, r25
    106a:	91 f3       	breq	.-28     	; 0x1050 <fdevopen+0x12>
    106c:	80 e8       	ldi	r24, 0x80	; 128
    106e:	83 83       	std	Z+3, r24	; 0x03
    1070:	01 15       	cp	r16, r1
    1072:	11 05       	cpc	r17, r1
    1074:	71 f0       	breq	.+28     	; 0x1092 <fdevopen+0x54>
    1076:	13 87       	std	Z+11, r17	; 0x0b
    1078:	02 87       	std	Z+10, r16	; 0x0a
    107a:	81 e8       	ldi	r24, 0x81	; 129
    107c:	83 83       	std	Z+3, r24	; 0x03
    107e:	80 91 be 02 	lds	r24, 0x02BE	; 0x8002be <__iob>
    1082:	90 91 bf 02 	lds	r25, 0x02BF	; 0x8002bf <__iob+0x1>
    1086:	89 2b       	or	r24, r25
    1088:	21 f4       	brne	.+8      	; 0x1092 <fdevopen+0x54>
    108a:	f0 93 bf 02 	sts	0x02BF, r31	; 0x8002bf <__iob+0x1>
    108e:	e0 93 be 02 	sts	0x02BE, r30	; 0x8002be <__iob>
    1092:	20 97       	sbiw	r28, 0x00	; 0
    1094:	c9 f0       	breq	.+50     	; 0x10c8 <fdevopen+0x8a>
    1096:	d1 87       	std	Z+9, r29	; 0x09
    1098:	c0 87       	std	Z+8, r28	; 0x08
    109a:	83 81       	ldd	r24, Z+3	; 0x03
    109c:	82 60       	ori	r24, 0x02	; 2
    109e:	83 83       	std	Z+3, r24	; 0x03
    10a0:	80 91 c0 02 	lds	r24, 0x02C0	; 0x8002c0 <__iob+0x2>
    10a4:	90 91 c1 02 	lds	r25, 0x02C1	; 0x8002c1 <__iob+0x3>
    10a8:	89 2b       	or	r24, r25
    10aa:	71 f4       	brne	.+28     	; 0x10c8 <fdevopen+0x8a>
    10ac:	f0 93 c1 02 	sts	0x02C1, r31	; 0x8002c1 <__iob+0x3>
    10b0:	e0 93 c0 02 	sts	0x02C0, r30	; 0x8002c0 <__iob+0x2>
    10b4:	80 91 c2 02 	lds	r24, 0x02C2	; 0x8002c2 <__iob+0x4>
    10b8:	90 91 c3 02 	lds	r25, 0x02C3	; 0x8002c3 <__iob+0x5>
    10bc:	89 2b       	or	r24, r25
    10be:	21 f4       	brne	.+8      	; 0x10c8 <fdevopen+0x8a>
    10c0:	f0 93 c3 02 	sts	0x02C3, r31	; 0x8002c3 <__iob+0x5>
    10c4:	e0 93 c2 02 	sts	0x02C2, r30	; 0x8002c2 <__iob+0x4>
    10c8:	cf 01       	movw	r24, r30
    10ca:	df 91       	pop	r29
    10cc:	cf 91       	pop	r28
    10ce:	1f 91       	pop	r17
    10d0:	0f 91       	pop	r16
    10d2:	08 95       	ret

000010d4 <puts>:
    10d4:	0f 93       	push	r16
    10d6:	1f 93       	push	r17
    10d8:	cf 93       	push	r28
    10da:	df 93       	push	r29
    10dc:	e0 91 c0 02 	lds	r30, 0x02C0	; 0x8002c0 <__iob+0x2>
    10e0:	f0 91 c1 02 	lds	r31, 0x02C1	; 0x8002c1 <__iob+0x3>
    10e4:	23 81       	ldd	r18, Z+3	; 0x03
    10e6:	21 ff       	sbrs	r18, 1
    10e8:	1b c0       	rjmp	.+54     	; 0x1120 <puts+0x4c>
    10ea:	8c 01       	movw	r16, r24
    10ec:	d0 e0       	ldi	r29, 0x00	; 0
    10ee:	c0 e0       	ldi	r28, 0x00	; 0
    10f0:	f8 01       	movw	r30, r16
    10f2:	81 91       	ld	r24, Z+
    10f4:	8f 01       	movw	r16, r30
    10f6:	60 91 c0 02 	lds	r22, 0x02C0	; 0x8002c0 <__iob+0x2>
    10fa:	70 91 c1 02 	lds	r23, 0x02C1	; 0x8002c1 <__iob+0x3>
    10fe:	db 01       	movw	r26, r22
    1100:	18 96       	adiw	r26, 0x08	; 8
    1102:	ed 91       	ld	r30, X+
    1104:	fc 91       	ld	r31, X
    1106:	19 97       	sbiw	r26, 0x09	; 9
    1108:	88 23       	and	r24, r24
    110a:	31 f0       	breq	.+12     	; 0x1118 <puts+0x44>
    110c:	09 95       	icall
    110e:	89 2b       	or	r24, r25
    1110:	79 f3       	breq	.-34     	; 0x10f0 <puts+0x1c>
    1112:	df ef       	ldi	r29, 0xFF	; 255
    1114:	cf ef       	ldi	r28, 0xFF	; 255
    1116:	ec cf       	rjmp	.-40     	; 0x10f0 <puts+0x1c>
    1118:	8a e0       	ldi	r24, 0x0A	; 10
    111a:	09 95       	icall
    111c:	89 2b       	or	r24, r25
    111e:	19 f0       	breq	.+6      	; 0x1126 <puts+0x52>
    1120:	8f ef       	ldi	r24, 0xFF	; 255
    1122:	9f ef       	ldi	r25, 0xFF	; 255
    1124:	02 c0       	rjmp	.+4      	; 0x112a <puts+0x56>
    1126:	8d 2f       	mov	r24, r29
    1128:	9c 2f       	mov	r25, r28
    112a:	df 91       	pop	r29
    112c:	cf 91       	pop	r28
    112e:	1f 91       	pop	r17
    1130:	0f 91       	pop	r16
    1132:	08 95       	ret

00001134 <sprintf>:
    1134:	ae e0       	ldi	r26, 0x0E	; 14
    1136:	b0 e0       	ldi	r27, 0x00	; 0
    1138:	e0 ea       	ldi	r30, 0xA0	; 160
    113a:	f8 e0       	ldi	r31, 0x08	; 8
    113c:	0c 94 9f 0c 	jmp	0x193e	; 0x193e <__prologue_saves__+0x1c>
    1140:	0d 89       	ldd	r16, Y+21	; 0x15
    1142:	1e 89       	ldd	r17, Y+22	; 0x16
    1144:	86 e0       	ldi	r24, 0x06	; 6
    1146:	8c 83       	std	Y+4, r24	; 0x04
    1148:	1a 83       	std	Y+2, r17	; 0x02
    114a:	09 83       	std	Y+1, r16	; 0x01
    114c:	8f ef       	ldi	r24, 0xFF	; 255
    114e:	9f e7       	ldi	r25, 0x7F	; 127
    1150:	9e 83       	std	Y+6, r25	; 0x06
    1152:	8d 83       	std	Y+5, r24	; 0x05
    1154:	ae 01       	movw	r20, r28
    1156:	47 5e       	subi	r20, 0xE7	; 231
    1158:	5f 4f       	sbci	r21, 0xFF	; 255
    115a:	6f 89       	ldd	r22, Y+23	; 0x17
    115c:	78 8d       	ldd	r23, Y+24	; 0x18
    115e:	ce 01       	movw	r24, r28
    1160:	01 96       	adiw	r24, 0x01	; 1
    1162:	0e 94 bc 08 	call	0x1178	; 0x1178 <vfprintf>
    1166:	ef 81       	ldd	r30, Y+7	; 0x07
    1168:	f8 85       	ldd	r31, Y+8	; 0x08
    116a:	e0 0f       	add	r30, r16
    116c:	f1 1f       	adc	r31, r17
    116e:	10 82       	st	Z, r1
    1170:	2e 96       	adiw	r28, 0x0e	; 14
    1172:	e4 e0       	ldi	r30, 0x04	; 4
    1174:	0c 94 bb 0c 	jmp	0x1976	; 0x1976 <__epilogue_restores__+0x1c>

00001178 <vfprintf>:
    1178:	ab e0       	ldi	r26, 0x0B	; 11
    117a:	b0 e0       	ldi	r27, 0x00	; 0
    117c:	e2 ec       	ldi	r30, 0xC2	; 194
    117e:	f8 e0       	ldi	r31, 0x08	; 8
    1180:	0c 94 91 0c 	jmp	0x1922	; 0x1922 <__prologue_saves__>
    1184:	6c 01       	movw	r12, r24
    1186:	7b 01       	movw	r14, r22
    1188:	8a 01       	movw	r16, r20
    118a:	fc 01       	movw	r30, r24
    118c:	17 82       	std	Z+7, r1	; 0x07
    118e:	16 82       	std	Z+6, r1	; 0x06
    1190:	83 81       	ldd	r24, Z+3	; 0x03
    1192:	81 ff       	sbrs	r24, 1
    1194:	cc c1       	rjmp	.+920    	; 0x152e <vfprintf+0x3b6>
    1196:	ce 01       	movw	r24, r28
    1198:	01 96       	adiw	r24, 0x01	; 1
    119a:	3c 01       	movw	r6, r24
    119c:	f6 01       	movw	r30, r12
    119e:	93 81       	ldd	r25, Z+3	; 0x03
    11a0:	f7 01       	movw	r30, r14
    11a2:	93 fd       	sbrc	r25, 3
    11a4:	85 91       	lpm	r24, Z+
    11a6:	93 ff       	sbrs	r25, 3
    11a8:	81 91       	ld	r24, Z+
    11aa:	7f 01       	movw	r14, r30
    11ac:	88 23       	and	r24, r24
    11ae:	09 f4       	brne	.+2      	; 0x11b2 <vfprintf+0x3a>
    11b0:	ba c1       	rjmp	.+884    	; 0x1526 <vfprintf+0x3ae>
    11b2:	85 32       	cpi	r24, 0x25	; 37
    11b4:	39 f4       	brne	.+14     	; 0x11c4 <vfprintf+0x4c>
    11b6:	93 fd       	sbrc	r25, 3
    11b8:	85 91       	lpm	r24, Z+
    11ba:	93 ff       	sbrs	r25, 3
    11bc:	81 91       	ld	r24, Z+
    11be:	7f 01       	movw	r14, r30
    11c0:	85 32       	cpi	r24, 0x25	; 37
    11c2:	29 f4       	brne	.+10     	; 0x11ce <vfprintf+0x56>
    11c4:	b6 01       	movw	r22, r12
    11c6:	90 e0       	ldi	r25, 0x00	; 0
    11c8:	0e 94 f7 0b 	call	0x17ee	; 0x17ee <fputc>
    11cc:	e7 cf       	rjmp	.-50     	; 0x119c <vfprintf+0x24>
    11ce:	91 2c       	mov	r9, r1
    11d0:	21 2c       	mov	r2, r1
    11d2:	31 2c       	mov	r3, r1
    11d4:	ff e1       	ldi	r31, 0x1F	; 31
    11d6:	f3 15       	cp	r31, r3
    11d8:	d8 f0       	brcs	.+54     	; 0x1210 <vfprintf+0x98>
    11da:	8b 32       	cpi	r24, 0x2B	; 43
    11dc:	79 f0       	breq	.+30     	; 0x11fc <vfprintf+0x84>
    11de:	38 f4       	brcc	.+14     	; 0x11ee <vfprintf+0x76>
    11e0:	80 32       	cpi	r24, 0x20	; 32
    11e2:	79 f0       	breq	.+30     	; 0x1202 <vfprintf+0x8a>
    11e4:	83 32       	cpi	r24, 0x23	; 35
    11e6:	a1 f4       	brne	.+40     	; 0x1210 <vfprintf+0x98>
    11e8:	23 2d       	mov	r18, r3
    11ea:	20 61       	ori	r18, 0x10	; 16
    11ec:	1d c0       	rjmp	.+58     	; 0x1228 <vfprintf+0xb0>
    11ee:	8d 32       	cpi	r24, 0x2D	; 45
    11f0:	61 f0       	breq	.+24     	; 0x120a <vfprintf+0x92>
    11f2:	80 33       	cpi	r24, 0x30	; 48
    11f4:	69 f4       	brne	.+26     	; 0x1210 <vfprintf+0x98>
    11f6:	23 2d       	mov	r18, r3
    11f8:	21 60       	ori	r18, 0x01	; 1
    11fa:	16 c0       	rjmp	.+44     	; 0x1228 <vfprintf+0xb0>
    11fc:	83 2d       	mov	r24, r3
    11fe:	82 60       	ori	r24, 0x02	; 2
    1200:	38 2e       	mov	r3, r24
    1202:	e3 2d       	mov	r30, r3
    1204:	e4 60       	ori	r30, 0x04	; 4
    1206:	3e 2e       	mov	r3, r30
    1208:	2a c0       	rjmp	.+84     	; 0x125e <vfprintf+0xe6>
    120a:	f3 2d       	mov	r31, r3
    120c:	f8 60       	ori	r31, 0x08	; 8
    120e:	1d c0       	rjmp	.+58     	; 0x124a <vfprintf+0xd2>
    1210:	37 fc       	sbrc	r3, 7
    1212:	2d c0       	rjmp	.+90     	; 0x126e <vfprintf+0xf6>
    1214:	20 ed       	ldi	r18, 0xD0	; 208
    1216:	28 0f       	add	r18, r24
    1218:	2a 30       	cpi	r18, 0x0A	; 10
    121a:	40 f0       	brcs	.+16     	; 0x122c <vfprintf+0xb4>
    121c:	8e 32       	cpi	r24, 0x2E	; 46
    121e:	b9 f4       	brne	.+46     	; 0x124e <vfprintf+0xd6>
    1220:	36 fc       	sbrc	r3, 6
    1222:	81 c1       	rjmp	.+770    	; 0x1526 <vfprintf+0x3ae>
    1224:	23 2d       	mov	r18, r3
    1226:	20 64       	ori	r18, 0x40	; 64
    1228:	32 2e       	mov	r3, r18
    122a:	19 c0       	rjmp	.+50     	; 0x125e <vfprintf+0xe6>
    122c:	36 fe       	sbrs	r3, 6
    122e:	06 c0       	rjmp	.+12     	; 0x123c <vfprintf+0xc4>
    1230:	8a e0       	ldi	r24, 0x0A	; 10
    1232:	98 9e       	mul	r9, r24
    1234:	20 0d       	add	r18, r0
    1236:	11 24       	eor	r1, r1
    1238:	92 2e       	mov	r9, r18
    123a:	11 c0       	rjmp	.+34     	; 0x125e <vfprintf+0xe6>
    123c:	ea e0       	ldi	r30, 0x0A	; 10
    123e:	2e 9e       	mul	r2, r30
    1240:	20 0d       	add	r18, r0
    1242:	11 24       	eor	r1, r1
    1244:	22 2e       	mov	r2, r18
    1246:	f3 2d       	mov	r31, r3
    1248:	f0 62       	ori	r31, 0x20	; 32
    124a:	3f 2e       	mov	r3, r31
    124c:	08 c0       	rjmp	.+16     	; 0x125e <vfprintf+0xe6>
    124e:	8c 36       	cpi	r24, 0x6C	; 108
    1250:	21 f4       	brne	.+8      	; 0x125a <vfprintf+0xe2>
    1252:	83 2d       	mov	r24, r3
    1254:	80 68       	ori	r24, 0x80	; 128
    1256:	38 2e       	mov	r3, r24
    1258:	02 c0       	rjmp	.+4      	; 0x125e <vfprintf+0xe6>
    125a:	88 36       	cpi	r24, 0x68	; 104
    125c:	41 f4       	brne	.+16     	; 0x126e <vfprintf+0xf6>
    125e:	f7 01       	movw	r30, r14
    1260:	93 fd       	sbrc	r25, 3
    1262:	85 91       	lpm	r24, Z+
    1264:	93 ff       	sbrs	r25, 3
    1266:	81 91       	ld	r24, Z+
    1268:	7f 01       	movw	r14, r30
    126a:	81 11       	cpse	r24, r1
    126c:	b3 cf       	rjmp	.-154    	; 0x11d4 <vfprintf+0x5c>
    126e:	98 2f       	mov	r25, r24
    1270:	9f 7d       	andi	r25, 0xDF	; 223
    1272:	95 54       	subi	r25, 0x45	; 69
    1274:	93 30       	cpi	r25, 0x03	; 3
    1276:	28 f4       	brcc	.+10     	; 0x1282 <vfprintf+0x10a>
    1278:	0c 5f       	subi	r16, 0xFC	; 252
    127a:	1f 4f       	sbci	r17, 0xFF	; 255
    127c:	9f e3       	ldi	r25, 0x3F	; 63
    127e:	99 83       	std	Y+1, r25	; 0x01
    1280:	0d c0       	rjmp	.+26     	; 0x129c <vfprintf+0x124>
    1282:	83 36       	cpi	r24, 0x63	; 99
    1284:	31 f0       	breq	.+12     	; 0x1292 <vfprintf+0x11a>
    1286:	83 37       	cpi	r24, 0x73	; 115
    1288:	71 f0       	breq	.+28     	; 0x12a6 <vfprintf+0x12e>
    128a:	83 35       	cpi	r24, 0x53	; 83
    128c:	09 f0       	breq	.+2      	; 0x1290 <vfprintf+0x118>
    128e:	59 c0       	rjmp	.+178    	; 0x1342 <vfprintf+0x1ca>
    1290:	21 c0       	rjmp	.+66     	; 0x12d4 <vfprintf+0x15c>
    1292:	f8 01       	movw	r30, r16
    1294:	80 81       	ld	r24, Z
    1296:	89 83       	std	Y+1, r24	; 0x01
    1298:	0e 5f       	subi	r16, 0xFE	; 254
    129a:	1f 4f       	sbci	r17, 0xFF	; 255
    129c:	88 24       	eor	r8, r8
    129e:	83 94       	inc	r8
    12a0:	91 2c       	mov	r9, r1
    12a2:	53 01       	movw	r10, r6
    12a4:	13 c0       	rjmp	.+38     	; 0x12cc <vfprintf+0x154>
    12a6:	28 01       	movw	r4, r16
    12a8:	f2 e0       	ldi	r31, 0x02	; 2
    12aa:	4f 0e       	add	r4, r31
    12ac:	51 1c       	adc	r5, r1
    12ae:	f8 01       	movw	r30, r16
    12b0:	a0 80       	ld	r10, Z
    12b2:	b1 80       	ldd	r11, Z+1	; 0x01
    12b4:	36 fe       	sbrs	r3, 6
    12b6:	03 c0       	rjmp	.+6      	; 0x12be <vfprintf+0x146>
    12b8:	69 2d       	mov	r22, r9
    12ba:	70 e0       	ldi	r23, 0x00	; 0
    12bc:	02 c0       	rjmp	.+4      	; 0x12c2 <vfprintf+0x14a>
    12be:	6f ef       	ldi	r22, 0xFF	; 255
    12c0:	7f ef       	ldi	r23, 0xFF	; 255
    12c2:	c5 01       	movw	r24, r10
    12c4:	0e 94 ec 0b 	call	0x17d8	; 0x17d8 <strnlen>
    12c8:	4c 01       	movw	r8, r24
    12ca:	82 01       	movw	r16, r4
    12cc:	f3 2d       	mov	r31, r3
    12ce:	ff 77       	andi	r31, 0x7F	; 127
    12d0:	3f 2e       	mov	r3, r31
    12d2:	16 c0       	rjmp	.+44     	; 0x1300 <vfprintf+0x188>
    12d4:	28 01       	movw	r4, r16
    12d6:	22 e0       	ldi	r18, 0x02	; 2
    12d8:	42 0e       	add	r4, r18
    12da:	51 1c       	adc	r5, r1
    12dc:	f8 01       	movw	r30, r16
    12de:	a0 80       	ld	r10, Z
    12e0:	b1 80       	ldd	r11, Z+1	; 0x01
    12e2:	36 fe       	sbrs	r3, 6
    12e4:	03 c0       	rjmp	.+6      	; 0x12ec <vfprintf+0x174>
    12e6:	69 2d       	mov	r22, r9
    12e8:	70 e0       	ldi	r23, 0x00	; 0
    12ea:	02 c0       	rjmp	.+4      	; 0x12f0 <vfprintf+0x178>
    12ec:	6f ef       	ldi	r22, 0xFF	; 255
    12ee:	7f ef       	ldi	r23, 0xFF	; 255
    12f0:	c5 01       	movw	r24, r10
    12f2:	0e 94 da 0b 	call	0x17b4	; 0x17b4 <strnlen_P>
    12f6:	4c 01       	movw	r8, r24
    12f8:	f3 2d       	mov	r31, r3
    12fa:	f0 68       	ori	r31, 0x80	; 128
    12fc:	3f 2e       	mov	r3, r31
    12fe:	82 01       	movw	r16, r4
    1300:	33 fc       	sbrc	r3, 3
    1302:	1b c0       	rjmp	.+54     	; 0x133a <vfprintf+0x1c2>
    1304:	82 2d       	mov	r24, r2
    1306:	90 e0       	ldi	r25, 0x00	; 0
    1308:	88 16       	cp	r8, r24
    130a:	99 06       	cpc	r9, r25
    130c:	b0 f4       	brcc	.+44     	; 0x133a <vfprintf+0x1c2>
    130e:	b6 01       	movw	r22, r12
    1310:	80 e2       	ldi	r24, 0x20	; 32
    1312:	90 e0       	ldi	r25, 0x00	; 0
    1314:	0e 94 f7 0b 	call	0x17ee	; 0x17ee <fputc>
    1318:	2a 94       	dec	r2
    131a:	f4 cf       	rjmp	.-24     	; 0x1304 <vfprintf+0x18c>
    131c:	f5 01       	movw	r30, r10
    131e:	37 fc       	sbrc	r3, 7
    1320:	85 91       	lpm	r24, Z+
    1322:	37 fe       	sbrs	r3, 7
    1324:	81 91       	ld	r24, Z+
    1326:	5f 01       	movw	r10, r30
    1328:	b6 01       	movw	r22, r12
    132a:	90 e0       	ldi	r25, 0x00	; 0
    132c:	0e 94 f7 0b 	call	0x17ee	; 0x17ee <fputc>
    1330:	21 10       	cpse	r2, r1
    1332:	2a 94       	dec	r2
    1334:	21 e0       	ldi	r18, 0x01	; 1
    1336:	82 1a       	sub	r8, r18
    1338:	91 08       	sbc	r9, r1
    133a:	81 14       	cp	r8, r1
    133c:	91 04       	cpc	r9, r1
    133e:	71 f7       	brne	.-36     	; 0x131c <vfprintf+0x1a4>
    1340:	e8 c0       	rjmp	.+464    	; 0x1512 <vfprintf+0x39a>
    1342:	84 36       	cpi	r24, 0x64	; 100
    1344:	11 f0       	breq	.+4      	; 0x134a <vfprintf+0x1d2>
    1346:	89 36       	cpi	r24, 0x69	; 105
    1348:	41 f5       	brne	.+80     	; 0x139a <vfprintf+0x222>
    134a:	f8 01       	movw	r30, r16
    134c:	37 fe       	sbrs	r3, 7
    134e:	07 c0       	rjmp	.+14     	; 0x135e <vfprintf+0x1e6>
    1350:	60 81       	ld	r22, Z
    1352:	71 81       	ldd	r23, Z+1	; 0x01
    1354:	82 81       	ldd	r24, Z+2	; 0x02
    1356:	93 81       	ldd	r25, Z+3	; 0x03
    1358:	0c 5f       	subi	r16, 0xFC	; 252
    135a:	1f 4f       	sbci	r17, 0xFF	; 255
    135c:	08 c0       	rjmp	.+16     	; 0x136e <vfprintf+0x1f6>
    135e:	60 81       	ld	r22, Z
    1360:	71 81       	ldd	r23, Z+1	; 0x01
    1362:	07 2e       	mov	r0, r23
    1364:	00 0c       	add	r0, r0
    1366:	88 0b       	sbc	r24, r24
    1368:	99 0b       	sbc	r25, r25
    136a:	0e 5f       	subi	r16, 0xFE	; 254
    136c:	1f 4f       	sbci	r17, 0xFF	; 255
    136e:	f3 2d       	mov	r31, r3
    1370:	ff 76       	andi	r31, 0x6F	; 111
    1372:	3f 2e       	mov	r3, r31
    1374:	97 ff       	sbrs	r25, 7
    1376:	09 c0       	rjmp	.+18     	; 0x138a <vfprintf+0x212>
    1378:	90 95       	com	r25
    137a:	80 95       	com	r24
    137c:	70 95       	com	r23
    137e:	61 95       	neg	r22
    1380:	7f 4f       	sbci	r23, 0xFF	; 255
    1382:	8f 4f       	sbci	r24, 0xFF	; 255
    1384:	9f 4f       	sbci	r25, 0xFF	; 255
    1386:	f0 68       	ori	r31, 0x80	; 128
    1388:	3f 2e       	mov	r3, r31
    138a:	2a e0       	ldi	r18, 0x0A	; 10
    138c:	30 e0       	ldi	r19, 0x00	; 0
    138e:	a3 01       	movw	r20, r6
    1390:	0e 94 33 0c 	call	0x1866	; 0x1866 <__ultoa_invert>
    1394:	88 2e       	mov	r8, r24
    1396:	86 18       	sub	r8, r6
    1398:	45 c0       	rjmp	.+138    	; 0x1424 <vfprintf+0x2ac>
    139a:	85 37       	cpi	r24, 0x75	; 117
    139c:	31 f4       	brne	.+12     	; 0x13aa <vfprintf+0x232>
    139e:	23 2d       	mov	r18, r3
    13a0:	2f 7e       	andi	r18, 0xEF	; 239
    13a2:	b2 2e       	mov	r11, r18
    13a4:	2a e0       	ldi	r18, 0x0A	; 10
    13a6:	30 e0       	ldi	r19, 0x00	; 0
    13a8:	25 c0       	rjmp	.+74     	; 0x13f4 <vfprintf+0x27c>
    13aa:	93 2d       	mov	r25, r3
    13ac:	99 7f       	andi	r25, 0xF9	; 249
    13ae:	b9 2e       	mov	r11, r25
    13b0:	8f 36       	cpi	r24, 0x6F	; 111
    13b2:	c1 f0       	breq	.+48     	; 0x13e4 <vfprintf+0x26c>
    13b4:	18 f4       	brcc	.+6      	; 0x13bc <vfprintf+0x244>
    13b6:	88 35       	cpi	r24, 0x58	; 88
    13b8:	79 f0       	breq	.+30     	; 0x13d8 <vfprintf+0x260>
    13ba:	b5 c0       	rjmp	.+362    	; 0x1526 <vfprintf+0x3ae>
    13bc:	80 37       	cpi	r24, 0x70	; 112
    13be:	19 f0       	breq	.+6      	; 0x13c6 <vfprintf+0x24e>
    13c0:	88 37       	cpi	r24, 0x78	; 120
    13c2:	21 f0       	breq	.+8      	; 0x13cc <vfprintf+0x254>
    13c4:	b0 c0       	rjmp	.+352    	; 0x1526 <vfprintf+0x3ae>
    13c6:	e9 2f       	mov	r30, r25
    13c8:	e0 61       	ori	r30, 0x10	; 16
    13ca:	be 2e       	mov	r11, r30
    13cc:	b4 fe       	sbrs	r11, 4
    13ce:	0d c0       	rjmp	.+26     	; 0x13ea <vfprintf+0x272>
    13d0:	fb 2d       	mov	r31, r11
    13d2:	f4 60       	ori	r31, 0x04	; 4
    13d4:	bf 2e       	mov	r11, r31
    13d6:	09 c0       	rjmp	.+18     	; 0x13ea <vfprintf+0x272>
    13d8:	34 fe       	sbrs	r3, 4
    13da:	0a c0       	rjmp	.+20     	; 0x13f0 <vfprintf+0x278>
    13dc:	29 2f       	mov	r18, r25
    13de:	26 60       	ori	r18, 0x06	; 6
    13e0:	b2 2e       	mov	r11, r18
    13e2:	06 c0       	rjmp	.+12     	; 0x13f0 <vfprintf+0x278>
    13e4:	28 e0       	ldi	r18, 0x08	; 8
    13e6:	30 e0       	ldi	r19, 0x00	; 0
    13e8:	05 c0       	rjmp	.+10     	; 0x13f4 <vfprintf+0x27c>
    13ea:	20 e1       	ldi	r18, 0x10	; 16
    13ec:	30 e0       	ldi	r19, 0x00	; 0
    13ee:	02 c0       	rjmp	.+4      	; 0x13f4 <vfprintf+0x27c>
    13f0:	20 e1       	ldi	r18, 0x10	; 16
    13f2:	32 e0       	ldi	r19, 0x02	; 2
    13f4:	f8 01       	movw	r30, r16
    13f6:	b7 fe       	sbrs	r11, 7
    13f8:	07 c0       	rjmp	.+14     	; 0x1408 <vfprintf+0x290>
    13fa:	60 81       	ld	r22, Z
    13fc:	71 81       	ldd	r23, Z+1	; 0x01
    13fe:	82 81       	ldd	r24, Z+2	; 0x02
    1400:	93 81       	ldd	r25, Z+3	; 0x03
    1402:	0c 5f       	subi	r16, 0xFC	; 252
    1404:	1f 4f       	sbci	r17, 0xFF	; 255
    1406:	06 c0       	rjmp	.+12     	; 0x1414 <vfprintf+0x29c>
    1408:	60 81       	ld	r22, Z
    140a:	71 81       	ldd	r23, Z+1	; 0x01
    140c:	80 e0       	ldi	r24, 0x00	; 0
    140e:	90 e0       	ldi	r25, 0x00	; 0
    1410:	0e 5f       	subi	r16, 0xFE	; 254
    1412:	1f 4f       	sbci	r17, 0xFF	; 255
    1414:	a3 01       	movw	r20, r6
    1416:	0e 94 33 0c 	call	0x1866	; 0x1866 <__ultoa_invert>
    141a:	88 2e       	mov	r8, r24
    141c:	86 18       	sub	r8, r6
    141e:	fb 2d       	mov	r31, r11
    1420:	ff 77       	andi	r31, 0x7F	; 127
    1422:	3f 2e       	mov	r3, r31
    1424:	36 fe       	sbrs	r3, 6
    1426:	0d c0       	rjmp	.+26     	; 0x1442 <vfprintf+0x2ca>
    1428:	23 2d       	mov	r18, r3
    142a:	2e 7f       	andi	r18, 0xFE	; 254
    142c:	a2 2e       	mov	r10, r18
    142e:	89 14       	cp	r8, r9
    1430:	58 f4       	brcc	.+22     	; 0x1448 <vfprintf+0x2d0>
    1432:	34 fe       	sbrs	r3, 4
    1434:	0b c0       	rjmp	.+22     	; 0x144c <vfprintf+0x2d4>
    1436:	32 fc       	sbrc	r3, 2
    1438:	09 c0       	rjmp	.+18     	; 0x144c <vfprintf+0x2d4>
    143a:	83 2d       	mov	r24, r3
    143c:	8e 7e       	andi	r24, 0xEE	; 238
    143e:	a8 2e       	mov	r10, r24
    1440:	05 c0       	rjmp	.+10     	; 0x144c <vfprintf+0x2d4>
    1442:	b8 2c       	mov	r11, r8
    1444:	a3 2c       	mov	r10, r3
    1446:	03 c0       	rjmp	.+6      	; 0x144e <vfprintf+0x2d6>
    1448:	b8 2c       	mov	r11, r8
    144a:	01 c0       	rjmp	.+2      	; 0x144e <vfprintf+0x2d6>
    144c:	b9 2c       	mov	r11, r9
    144e:	a4 fe       	sbrs	r10, 4
    1450:	0f c0       	rjmp	.+30     	; 0x1470 <vfprintf+0x2f8>
    1452:	fe 01       	movw	r30, r28
    1454:	e8 0d       	add	r30, r8
    1456:	f1 1d       	adc	r31, r1
    1458:	80 81       	ld	r24, Z
    145a:	80 33       	cpi	r24, 0x30	; 48
    145c:	21 f4       	brne	.+8      	; 0x1466 <vfprintf+0x2ee>
    145e:	9a 2d       	mov	r25, r10
    1460:	99 7e       	andi	r25, 0xE9	; 233
    1462:	a9 2e       	mov	r10, r25
    1464:	09 c0       	rjmp	.+18     	; 0x1478 <vfprintf+0x300>
    1466:	a2 fe       	sbrs	r10, 2
    1468:	06 c0       	rjmp	.+12     	; 0x1476 <vfprintf+0x2fe>
    146a:	b3 94       	inc	r11
    146c:	b3 94       	inc	r11
    146e:	04 c0       	rjmp	.+8      	; 0x1478 <vfprintf+0x300>
    1470:	8a 2d       	mov	r24, r10
    1472:	86 78       	andi	r24, 0x86	; 134
    1474:	09 f0       	breq	.+2      	; 0x1478 <vfprintf+0x300>
    1476:	b3 94       	inc	r11
    1478:	a3 fc       	sbrc	r10, 3
    147a:	11 c0       	rjmp	.+34     	; 0x149e <vfprintf+0x326>
    147c:	a0 fe       	sbrs	r10, 0
    147e:	06 c0       	rjmp	.+12     	; 0x148c <vfprintf+0x314>
    1480:	b2 14       	cp	r11, r2
    1482:	88 f4       	brcc	.+34     	; 0x14a6 <vfprintf+0x32e>
    1484:	28 0c       	add	r2, r8
    1486:	92 2c       	mov	r9, r2
    1488:	9b 18       	sub	r9, r11
    148a:	0e c0       	rjmp	.+28     	; 0x14a8 <vfprintf+0x330>
    148c:	b2 14       	cp	r11, r2
    148e:	60 f4       	brcc	.+24     	; 0x14a8 <vfprintf+0x330>
    1490:	b6 01       	movw	r22, r12
    1492:	80 e2       	ldi	r24, 0x20	; 32
    1494:	90 e0       	ldi	r25, 0x00	; 0
    1496:	0e 94 f7 0b 	call	0x17ee	; 0x17ee <fputc>
    149a:	b3 94       	inc	r11
    149c:	f7 cf       	rjmp	.-18     	; 0x148c <vfprintf+0x314>
    149e:	b2 14       	cp	r11, r2
    14a0:	18 f4       	brcc	.+6      	; 0x14a8 <vfprintf+0x330>
    14a2:	2b 18       	sub	r2, r11
    14a4:	02 c0       	rjmp	.+4      	; 0x14aa <vfprintf+0x332>
    14a6:	98 2c       	mov	r9, r8
    14a8:	21 2c       	mov	r2, r1
    14aa:	a4 fe       	sbrs	r10, 4
    14ac:	10 c0       	rjmp	.+32     	; 0x14ce <vfprintf+0x356>
    14ae:	b6 01       	movw	r22, r12
    14b0:	80 e3       	ldi	r24, 0x30	; 48
    14b2:	90 e0       	ldi	r25, 0x00	; 0
    14b4:	0e 94 f7 0b 	call	0x17ee	; 0x17ee <fputc>
    14b8:	a2 fe       	sbrs	r10, 2
    14ba:	17 c0       	rjmp	.+46     	; 0x14ea <vfprintf+0x372>
    14bc:	a1 fc       	sbrc	r10, 1
    14be:	03 c0       	rjmp	.+6      	; 0x14c6 <vfprintf+0x34e>
    14c0:	88 e7       	ldi	r24, 0x78	; 120
    14c2:	90 e0       	ldi	r25, 0x00	; 0
    14c4:	02 c0       	rjmp	.+4      	; 0x14ca <vfprintf+0x352>
    14c6:	88 e5       	ldi	r24, 0x58	; 88
    14c8:	90 e0       	ldi	r25, 0x00	; 0
    14ca:	b6 01       	movw	r22, r12
    14cc:	0c c0       	rjmp	.+24     	; 0x14e6 <vfprintf+0x36e>
    14ce:	8a 2d       	mov	r24, r10
    14d0:	86 78       	andi	r24, 0x86	; 134
    14d2:	59 f0       	breq	.+22     	; 0x14ea <vfprintf+0x372>
    14d4:	a1 fe       	sbrs	r10, 1
    14d6:	02 c0       	rjmp	.+4      	; 0x14dc <vfprintf+0x364>
    14d8:	8b e2       	ldi	r24, 0x2B	; 43
    14da:	01 c0       	rjmp	.+2      	; 0x14de <vfprintf+0x366>
    14dc:	80 e2       	ldi	r24, 0x20	; 32
    14de:	a7 fc       	sbrc	r10, 7
    14e0:	8d e2       	ldi	r24, 0x2D	; 45
    14e2:	b6 01       	movw	r22, r12
    14e4:	90 e0       	ldi	r25, 0x00	; 0
    14e6:	0e 94 f7 0b 	call	0x17ee	; 0x17ee <fputc>
    14ea:	89 14       	cp	r8, r9
    14ec:	38 f4       	brcc	.+14     	; 0x14fc <vfprintf+0x384>
    14ee:	b6 01       	movw	r22, r12
    14f0:	80 e3       	ldi	r24, 0x30	; 48
    14f2:	90 e0       	ldi	r25, 0x00	; 0
    14f4:	0e 94 f7 0b 	call	0x17ee	; 0x17ee <fputc>
    14f8:	9a 94       	dec	r9
    14fa:	f7 cf       	rjmp	.-18     	; 0x14ea <vfprintf+0x372>
    14fc:	8a 94       	dec	r8
    14fe:	f3 01       	movw	r30, r6
    1500:	e8 0d       	add	r30, r8
    1502:	f1 1d       	adc	r31, r1
    1504:	80 81       	ld	r24, Z
    1506:	b6 01       	movw	r22, r12
    1508:	90 e0       	ldi	r25, 0x00	; 0
    150a:	0e 94 f7 0b 	call	0x17ee	; 0x17ee <fputc>
    150e:	81 10       	cpse	r8, r1
    1510:	f5 cf       	rjmp	.-22     	; 0x14fc <vfprintf+0x384>
    1512:	22 20       	and	r2, r2
    1514:	09 f4       	brne	.+2      	; 0x1518 <vfprintf+0x3a0>
    1516:	42 ce       	rjmp	.-892    	; 0x119c <vfprintf+0x24>
    1518:	b6 01       	movw	r22, r12
    151a:	80 e2       	ldi	r24, 0x20	; 32
    151c:	90 e0       	ldi	r25, 0x00	; 0
    151e:	0e 94 f7 0b 	call	0x17ee	; 0x17ee <fputc>
    1522:	2a 94       	dec	r2
    1524:	f6 cf       	rjmp	.-20     	; 0x1512 <vfprintf+0x39a>
    1526:	f6 01       	movw	r30, r12
    1528:	86 81       	ldd	r24, Z+6	; 0x06
    152a:	97 81       	ldd	r25, Z+7	; 0x07
    152c:	02 c0       	rjmp	.+4      	; 0x1532 <vfprintf+0x3ba>
    152e:	8f ef       	ldi	r24, 0xFF	; 255
    1530:	9f ef       	ldi	r25, 0xFF	; 255
    1532:	2b 96       	adiw	r28, 0x0b	; 11
    1534:	e2 e1       	ldi	r30, 0x12	; 18
    1536:	0c 94 ad 0c 	jmp	0x195a	; 0x195a <__epilogue_restores__>

0000153a <calloc>:
    153a:	0f 93       	push	r16
    153c:	1f 93       	push	r17
    153e:	cf 93       	push	r28
    1540:	df 93       	push	r29
    1542:	86 9f       	mul	r24, r22
    1544:	80 01       	movw	r16, r0
    1546:	87 9f       	mul	r24, r23
    1548:	10 0d       	add	r17, r0
    154a:	96 9f       	mul	r25, r22
    154c:	10 0d       	add	r17, r0
    154e:	11 24       	eor	r1, r1
    1550:	c8 01       	movw	r24, r16
    1552:	0e 94 b9 0a 	call	0x1572	; 0x1572 <malloc>
    1556:	ec 01       	movw	r28, r24
    1558:	00 97       	sbiw	r24, 0x00	; 0
    155a:	29 f0       	breq	.+10     	; 0x1566 <calloc+0x2c>
    155c:	a8 01       	movw	r20, r16
    155e:	60 e0       	ldi	r22, 0x00	; 0
    1560:	70 e0       	ldi	r23, 0x00	; 0
    1562:	0e 94 e5 0b 	call	0x17ca	; 0x17ca <memset>
    1566:	ce 01       	movw	r24, r28
    1568:	df 91       	pop	r29
    156a:	cf 91       	pop	r28
    156c:	1f 91       	pop	r17
    156e:	0f 91       	pop	r16
    1570:	08 95       	ret

00001572 <malloc>:
    1572:	0f 93       	push	r16
    1574:	1f 93       	push	r17
    1576:	cf 93       	push	r28
    1578:	df 93       	push	r29
    157a:	82 30       	cpi	r24, 0x02	; 2
    157c:	91 05       	cpc	r25, r1
    157e:	10 f4       	brcc	.+4      	; 0x1584 <malloc+0x12>
    1580:	82 e0       	ldi	r24, 0x02	; 2
    1582:	90 e0       	ldi	r25, 0x00	; 0
    1584:	e0 91 c6 02 	lds	r30, 0x02C6	; 0x8002c6 <__flp>
    1588:	f0 91 c7 02 	lds	r31, 0x02C7	; 0x8002c7 <__flp+0x1>
    158c:	20 e0       	ldi	r18, 0x00	; 0
    158e:	30 e0       	ldi	r19, 0x00	; 0
    1590:	a0 e0       	ldi	r26, 0x00	; 0
    1592:	b0 e0       	ldi	r27, 0x00	; 0
    1594:	30 97       	sbiw	r30, 0x00	; 0
    1596:	19 f1       	breq	.+70     	; 0x15de <malloc+0x6c>
    1598:	40 81       	ld	r20, Z
    159a:	51 81       	ldd	r21, Z+1	; 0x01
    159c:	02 81       	ldd	r16, Z+2	; 0x02
    159e:	13 81       	ldd	r17, Z+3	; 0x03
    15a0:	48 17       	cp	r20, r24
    15a2:	59 07       	cpc	r21, r25
    15a4:	c8 f0       	brcs	.+50     	; 0x15d8 <malloc+0x66>
    15a6:	84 17       	cp	r24, r20
    15a8:	95 07       	cpc	r25, r21
    15aa:	69 f4       	brne	.+26     	; 0x15c6 <malloc+0x54>
    15ac:	10 97       	sbiw	r26, 0x00	; 0
    15ae:	31 f0       	breq	.+12     	; 0x15bc <malloc+0x4a>
    15b0:	12 96       	adiw	r26, 0x02	; 2
    15b2:	0c 93       	st	X, r16
    15b4:	12 97       	sbiw	r26, 0x02	; 2
    15b6:	13 96       	adiw	r26, 0x03	; 3
    15b8:	1c 93       	st	X, r17
    15ba:	27 c0       	rjmp	.+78     	; 0x160a <malloc+0x98>
    15bc:	00 93 c6 02 	sts	0x02C6, r16	; 0x8002c6 <__flp>
    15c0:	10 93 c7 02 	sts	0x02C7, r17	; 0x8002c7 <__flp+0x1>
    15c4:	22 c0       	rjmp	.+68     	; 0x160a <malloc+0x98>
    15c6:	21 15       	cp	r18, r1
    15c8:	31 05       	cpc	r19, r1
    15ca:	19 f0       	breq	.+6      	; 0x15d2 <malloc+0x60>
    15cc:	42 17       	cp	r20, r18
    15ce:	53 07       	cpc	r21, r19
    15d0:	18 f4       	brcc	.+6      	; 0x15d8 <malloc+0x66>
    15d2:	9a 01       	movw	r18, r20
    15d4:	bd 01       	movw	r22, r26
    15d6:	ef 01       	movw	r28, r30
    15d8:	df 01       	movw	r26, r30
    15da:	f8 01       	movw	r30, r16
    15dc:	db cf       	rjmp	.-74     	; 0x1594 <malloc+0x22>
    15de:	21 15       	cp	r18, r1
    15e0:	31 05       	cpc	r19, r1
    15e2:	f9 f0       	breq	.+62     	; 0x1622 <malloc+0xb0>
    15e4:	28 1b       	sub	r18, r24
    15e6:	39 0b       	sbc	r19, r25
    15e8:	24 30       	cpi	r18, 0x04	; 4
    15ea:	31 05       	cpc	r19, r1
    15ec:	80 f4       	brcc	.+32     	; 0x160e <malloc+0x9c>
    15ee:	8a 81       	ldd	r24, Y+2	; 0x02
    15f0:	9b 81       	ldd	r25, Y+3	; 0x03
    15f2:	61 15       	cp	r22, r1
    15f4:	71 05       	cpc	r23, r1
    15f6:	21 f0       	breq	.+8      	; 0x1600 <malloc+0x8e>
    15f8:	fb 01       	movw	r30, r22
    15fa:	93 83       	std	Z+3, r25	; 0x03
    15fc:	82 83       	std	Z+2, r24	; 0x02
    15fe:	04 c0       	rjmp	.+8      	; 0x1608 <malloc+0x96>
    1600:	90 93 c7 02 	sts	0x02C7, r25	; 0x8002c7 <__flp+0x1>
    1604:	80 93 c6 02 	sts	0x02C6, r24	; 0x8002c6 <__flp>
    1608:	fe 01       	movw	r30, r28
    160a:	32 96       	adiw	r30, 0x02	; 2
    160c:	44 c0       	rjmp	.+136    	; 0x1696 <malloc+0x124>
    160e:	fe 01       	movw	r30, r28
    1610:	e2 0f       	add	r30, r18
    1612:	f3 1f       	adc	r31, r19
    1614:	81 93       	st	Z+, r24
    1616:	91 93       	st	Z+, r25
    1618:	22 50       	subi	r18, 0x02	; 2
    161a:	31 09       	sbc	r19, r1
    161c:	39 83       	std	Y+1, r19	; 0x01
    161e:	28 83       	st	Y, r18
    1620:	3a c0       	rjmp	.+116    	; 0x1696 <malloc+0x124>
    1622:	20 91 c4 02 	lds	r18, 0x02C4	; 0x8002c4 <__brkval>
    1626:	30 91 c5 02 	lds	r19, 0x02C5	; 0x8002c5 <__brkval+0x1>
    162a:	23 2b       	or	r18, r19
    162c:	41 f4       	brne	.+16     	; 0x163e <malloc+0xcc>
    162e:	20 91 02 01 	lds	r18, 0x0102	; 0x800102 <__malloc_heap_start>
    1632:	30 91 03 01 	lds	r19, 0x0103	; 0x800103 <__malloc_heap_start+0x1>
    1636:	30 93 c5 02 	sts	0x02C5, r19	; 0x8002c5 <__brkval+0x1>
    163a:	20 93 c4 02 	sts	0x02C4, r18	; 0x8002c4 <__brkval>
    163e:	20 91 00 01 	lds	r18, 0x0100	; 0x800100 <__data_start>
    1642:	30 91 01 01 	lds	r19, 0x0101	; 0x800101 <__data_start+0x1>
    1646:	21 15       	cp	r18, r1
    1648:	31 05       	cpc	r19, r1
    164a:	41 f4       	brne	.+16     	; 0x165c <malloc+0xea>
    164c:	2d b7       	in	r18, 0x3d	; 61
    164e:	3e b7       	in	r19, 0x3e	; 62
    1650:	40 91 04 01 	lds	r20, 0x0104	; 0x800104 <__malloc_margin>
    1654:	50 91 05 01 	lds	r21, 0x0105	; 0x800105 <__malloc_margin+0x1>
    1658:	24 1b       	sub	r18, r20
    165a:	35 0b       	sbc	r19, r21
    165c:	e0 91 c4 02 	lds	r30, 0x02C4	; 0x8002c4 <__brkval>
    1660:	f0 91 c5 02 	lds	r31, 0x02C5	; 0x8002c5 <__brkval+0x1>
    1664:	e2 17       	cp	r30, r18
    1666:	f3 07       	cpc	r31, r19
    1668:	a0 f4       	brcc	.+40     	; 0x1692 <malloc+0x120>
    166a:	2e 1b       	sub	r18, r30
    166c:	3f 0b       	sbc	r19, r31
    166e:	28 17       	cp	r18, r24
    1670:	39 07       	cpc	r19, r25
    1672:	78 f0       	brcs	.+30     	; 0x1692 <malloc+0x120>
    1674:	ac 01       	movw	r20, r24
    1676:	4e 5f       	subi	r20, 0xFE	; 254
    1678:	5f 4f       	sbci	r21, 0xFF	; 255
    167a:	24 17       	cp	r18, r20
    167c:	35 07       	cpc	r19, r21
    167e:	48 f0       	brcs	.+18     	; 0x1692 <malloc+0x120>
    1680:	4e 0f       	add	r20, r30
    1682:	5f 1f       	adc	r21, r31
    1684:	50 93 c5 02 	sts	0x02C5, r21	; 0x8002c5 <__brkval+0x1>
    1688:	40 93 c4 02 	sts	0x02C4, r20	; 0x8002c4 <__brkval>
    168c:	81 93       	st	Z+, r24
    168e:	91 93       	st	Z+, r25
    1690:	02 c0       	rjmp	.+4      	; 0x1696 <malloc+0x124>
    1692:	e0 e0       	ldi	r30, 0x00	; 0
    1694:	f0 e0       	ldi	r31, 0x00	; 0
    1696:	cf 01       	movw	r24, r30
    1698:	df 91       	pop	r29
    169a:	cf 91       	pop	r28
    169c:	1f 91       	pop	r17
    169e:	0f 91       	pop	r16
    16a0:	08 95       	ret

000016a2 <free>:
    16a2:	cf 93       	push	r28
    16a4:	df 93       	push	r29
    16a6:	00 97       	sbiw	r24, 0x00	; 0
    16a8:	09 f4       	brne	.+2      	; 0x16ac <free+0xa>
    16aa:	81 c0       	rjmp	.+258    	; 0x17ae <free+0x10c>
    16ac:	fc 01       	movw	r30, r24
    16ae:	32 97       	sbiw	r30, 0x02	; 2
    16b0:	13 82       	std	Z+3, r1	; 0x03
    16b2:	12 82       	std	Z+2, r1	; 0x02
    16b4:	a0 91 c6 02 	lds	r26, 0x02C6	; 0x8002c6 <__flp>
    16b8:	b0 91 c7 02 	lds	r27, 0x02C7	; 0x8002c7 <__flp+0x1>
    16bc:	10 97       	sbiw	r26, 0x00	; 0
    16be:	81 f4       	brne	.+32     	; 0x16e0 <free+0x3e>
    16c0:	20 81       	ld	r18, Z
    16c2:	31 81       	ldd	r19, Z+1	; 0x01
    16c4:	82 0f       	add	r24, r18
    16c6:	93 1f       	adc	r25, r19
    16c8:	20 91 c4 02 	lds	r18, 0x02C4	; 0x8002c4 <__brkval>
    16cc:	30 91 c5 02 	lds	r19, 0x02C5	; 0x8002c5 <__brkval+0x1>
    16d0:	28 17       	cp	r18, r24
    16d2:	39 07       	cpc	r19, r25
    16d4:	51 f5       	brne	.+84     	; 0x172a <free+0x88>
    16d6:	f0 93 c5 02 	sts	0x02C5, r31	; 0x8002c5 <__brkval+0x1>
    16da:	e0 93 c4 02 	sts	0x02C4, r30	; 0x8002c4 <__brkval>
    16de:	67 c0       	rjmp	.+206    	; 0x17ae <free+0x10c>
    16e0:	ed 01       	movw	r28, r26
    16e2:	20 e0       	ldi	r18, 0x00	; 0
    16e4:	30 e0       	ldi	r19, 0x00	; 0
    16e6:	ce 17       	cp	r28, r30
    16e8:	df 07       	cpc	r29, r31
    16ea:	40 f4       	brcc	.+16     	; 0x16fc <free+0x5a>
    16ec:	4a 81       	ldd	r20, Y+2	; 0x02
    16ee:	5b 81       	ldd	r21, Y+3	; 0x03
    16f0:	9e 01       	movw	r18, r28
    16f2:	41 15       	cp	r20, r1
    16f4:	51 05       	cpc	r21, r1
    16f6:	f1 f0       	breq	.+60     	; 0x1734 <free+0x92>
    16f8:	ea 01       	movw	r28, r20
    16fa:	f5 cf       	rjmp	.-22     	; 0x16e6 <free+0x44>
    16fc:	d3 83       	std	Z+3, r29	; 0x03
    16fe:	c2 83       	std	Z+2, r28	; 0x02
    1700:	40 81       	ld	r20, Z
    1702:	51 81       	ldd	r21, Z+1	; 0x01
    1704:	84 0f       	add	r24, r20
    1706:	95 1f       	adc	r25, r21
    1708:	c8 17       	cp	r28, r24
    170a:	d9 07       	cpc	r29, r25
    170c:	59 f4       	brne	.+22     	; 0x1724 <free+0x82>
    170e:	88 81       	ld	r24, Y
    1710:	99 81       	ldd	r25, Y+1	; 0x01
    1712:	84 0f       	add	r24, r20
    1714:	95 1f       	adc	r25, r21
    1716:	02 96       	adiw	r24, 0x02	; 2
    1718:	91 83       	std	Z+1, r25	; 0x01
    171a:	80 83       	st	Z, r24
    171c:	8a 81       	ldd	r24, Y+2	; 0x02
    171e:	9b 81       	ldd	r25, Y+3	; 0x03
    1720:	93 83       	std	Z+3, r25	; 0x03
    1722:	82 83       	std	Z+2, r24	; 0x02
    1724:	21 15       	cp	r18, r1
    1726:	31 05       	cpc	r19, r1
    1728:	29 f4       	brne	.+10     	; 0x1734 <free+0x92>
    172a:	f0 93 c7 02 	sts	0x02C7, r31	; 0x8002c7 <__flp+0x1>
    172e:	e0 93 c6 02 	sts	0x02C6, r30	; 0x8002c6 <__flp>
    1732:	3d c0       	rjmp	.+122    	; 0x17ae <free+0x10c>
    1734:	e9 01       	movw	r28, r18
    1736:	fb 83       	std	Y+3, r31	; 0x03
    1738:	ea 83       	std	Y+2, r30	; 0x02
    173a:	49 91       	ld	r20, Y+
    173c:	59 91       	ld	r21, Y+
    173e:	c4 0f       	add	r28, r20
    1740:	d5 1f       	adc	r29, r21
    1742:	ec 17       	cp	r30, r28
    1744:	fd 07       	cpc	r31, r29
    1746:	61 f4       	brne	.+24     	; 0x1760 <free+0xbe>
    1748:	80 81       	ld	r24, Z
    174a:	91 81       	ldd	r25, Z+1	; 0x01
    174c:	84 0f       	add	r24, r20
    174e:	95 1f       	adc	r25, r21
    1750:	02 96       	adiw	r24, 0x02	; 2
    1752:	e9 01       	movw	r28, r18
    1754:	99 83       	std	Y+1, r25	; 0x01
    1756:	88 83       	st	Y, r24
    1758:	82 81       	ldd	r24, Z+2	; 0x02
    175a:	93 81       	ldd	r25, Z+3	; 0x03
    175c:	9b 83       	std	Y+3, r25	; 0x03
    175e:	8a 83       	std	Y+2, r24	; 0x02
    1760:	e0 e0       	ldi	r30, 0x00	; 0
    1762:	f0 e0       	ldi	r31, 0x00	; 0
    1764:	12 96       	adiw	r26, 0x02	; 2
    1766:	8d 91       	ld	r24, X+
    1768:	9c 91       	ld	r25, X
    176a:	13 97       	sbiw	r26, 0x03	; 3
    176c:	00 97       	sbiw	r24, 0x00	; 0
    176e:	19 f0       	breq	.+6      	; 0x1776 <free+0xd4>
    1770:	fd 01       	movw	r30, r26
    1772:	dc 01       	movw	r26, r24
    1774:	f7 cf       	rjmp	.-18     	; 0x1764 <free+0xc2>
    1776:	8d 91       	ld	r24, X+
    1778:	9c 91       	ld	r25, X
    177a:	11 97       	sbiw	r26, 0x01	; 1
    177c:	9d 01       	movw	r18, r26
    177e:	2e 5f       	subi	r18, 0xFE	; 254
    1780:	3f 4f       	sbci	r19, 0xFF	; 255
    1782:	82 0f       	add	r24, r18
    1784:	93 1f       	adc	r25, r19
    1786:	20 91 c4 02 	lds	r18, 0x02C4	; 0x8002c4 <__brkval>
    178a:	30 91 c5 02 	lds	r19, 0x02C5	; 0x8002c5 <__brkval+0x1>
    178e:	28 17       	cp	r18, r24
    1790:	39 07       	cpc	r19, r25
    1792:	69 f4       	brne	.+26     	; 0x17ae <free+0x10c>
    1794:	30 97       	sbiw	r30, 0x00	; 0
    1796:	29 f4       	brne	.+10     	; 0x17a2 <free+0x100>
    1798:	10 92 c7 02 	sts	0x02C7, r1	; 0x8002c7 <__flp+0x1>
    179c:	10 92 c6 02 	sts	0x02C6, r1	; 0x8002c6 <__flp>
    17a0:	02 c0       	rjmp	.+4      	; 0x17a6 <free+0x104>
    17a2:	13 82       	std	Z+3, r1	; 0x03
    17a4:	12 82       	std	Z+2, r1	; 0x02
    17a6:	b0 93 c5 02 	sts	0x02C5, r27	; 0x8002c5 <__brkval+0x1>
    17aa:	a0 93 c4 02 	sts	0x02C4, r26	; 0x8002c4 <__brkval>
    17ae:	df 91       	pop	r29
    17b0:	cf 91       	pop	r28
    17b2:	08 95       	ret

000017b4 <strnlen_P>:
    17b4:	fc 01       	movw	r30, r24
    17b6:	05 90       	lpm	r0, Z+
    17b8:	61 50       	subi	r22, 0x01	; 1
    17ba:	70 40       	sbci	r23, 0x00	; 0
    17bc:	01 10       	cpse	r0, r1
    17be:	d8 f7       	brcc	.-10     	; 0x17b6 <strnlen_P+0x2>
    17c0:	80 95       	com	r24
    17c2:	90 95       	com	r25
    17c4:	8e 0f       	add	r24, r30
    17c6:	9f 1f       	adc	r25, r31
    17c8:	08 95       	ret

000017ca <memset>:
    17ca:	dc 01       	movw	r26, r24
    17cc:	01 c0       	rjmp	.+2      	; 0x17d0 <memset+0x6>
    17ce:	6d 93       	st	X+, r22
    17d0:	41 50       	subi	r20, 0x01	; 1
    17d2:	50 40       	sbci	r21, 0x00	; 0
    17d4:	e0 f7       	brcc	.-8      	; 0x17ce <memset+0x4>
    17d6:	08 95       	ret

000017d8 <strnlen>:
    17d8:	fc 01       	movw	r30, r24
    17da:	61 50       	subi	r22, 0x01	; 1
    17dc:	70 40       	sbci	r23, 0x00	; 0
    17de:	01 90       	ld	r0, Z+
    17e0:	01 10       	cpse	r0, r1
    17e2:	d8 f7       	brcc	.-10     	; 0x17da <strnlen+0x2>
    17e4:	80 95       	com	r24
    17e6:	90 95       	com	r25
    17e8:	8e 0f       	add	r24, r30
    17ea:	9f 1f       	adc	r25, r31
    17ec:	08 95       	ret

000017ee <fputc>:
    17ee:	0f 93       	push	r16
    17f0:	1f 93       	push	r17
    17f2:	cf 93       	push	r28
    17f4:	df 93       	push	r29
    17f6:	fb 01       	movw	r30, r22
    17f8:	23 81       	ldd	r18, Z+3	; 0x03
    17fa:	21 fd       	sbrc	r18, 1
    17fc:	03 c0       	rjmp	.+6      	; 0x1804 <fputc+0x16>
    17fe:	8f ef       	ldi	r24, 0xFF	; 255
    1800:	9f ef       	ldi	r25, 0xFF	; 255
    1802:	2c c0       	rjmp	.+88     	; 0x185c <fputc+0x6e>
    1804:	22 ff       	sbrs	r18, 2
    1806:	16 c0       	rjmp	.+44     	; 0x1834 <fputc+0x46>
    1808:	46 81       	ldd	r20, Z+6	; 0x06
    180a:	57 81       	ldd	r21, Z+7	; 0x07
    180c:	24 81       	ldd	r18, Z+4	; 0x04
    180e:	35 81       	ldd	r19, Z+5	; 0x05
    1810:	42 17       	cp	r20, r18
    1812:	53 07       	cpc	r21, r19
    1814:	44 f4       	brge	.+16     	; 0x1826 <fputc+0x38>
    1816:	a0 81       	ld	r26, Z
    1818:	b1 81       	ldd	r27, Z+1	; 0x01
    181a:	9d 01       	movw	r18, r26
    181c:	2f 5f       	subi	r18, 0xFF	; 255
    181e:	3f 4f       	sbci	r19, 0xFF	; 255
    1820:	31 83       	std	Z+1, r19	; 0x01
    1822:	20 83       	st	Z, r18
    1824:	8c 93       	st	X, r24
    1826:	26 81       	ldd	r18, Z+6	; 0x06
    1828:	37 81       	ldd	r19, Z+7	; 0x07
    182a:	2f 5f       	subi	r18, 0xFF	; 255
    182c:	3f 4f       	sbci	r19, 0xFF	; 255
    182e:	37 83       	std	Z+7, r19	; 0x07
    1830:	26 83       	std	Z+6, r18	; 0x06
    1832:	14 c0       	rjmp	.+40     	; 0x185c <fputc+0x6e>
    1834:	8b 01       	movw	r16, r22
    1836:	ec 01       	movw	r28, r24
    1838:	fb 01       	movw	r30, r22
    183a:	00 84       	ldd	r0, Z+8	; 0x08
    183c:	f1 85       	ldd	r31, Z+9	; 0x09
    183e:	e0 2d       	mov	r30, r0
    1840:	09 95       	icall
    1842:	89 2b       	or	r24, r25
    1844:	e1 f6       	brne	.-72     	; 0x17fe <fputc+0x10>
    1846:	d8 01       	movw	r26, r16
    1848:	16 96       	adiw	r26, 0x06	; 6
    184a:	8d 91       	ld	r24, X+
    184c:	9c 91       	ld	r25, X
    184e:	17 97       	sbiw	r26, 0x07	; 7
    1850:	01 96       	adiw	r24, 0x01	; 1
    1852:	17 96       	adiw	r26, 0x07	; 7
    1854:	9c 93       	st	X, r25
    1856:	8e 93       	st	-X, r24
    1858:	16 97       	sbiw	r26, 0x06	; 6
    185a:	ce 01       	movw	r24, r28
    185c:	df 91       	pop	r29
    185e:	cf 91       	pop	r28
    1860:	1f 91       	pop	r17
    1862:	0f 91       	pop	r16
    1864:	08 95       	ret

00001866 <__ultoa_invert>:
    1866:	fa 01       	movw	r30, r20
    1868:	aa 27       	eor	r26, r26
    186a:	28 30       	cpi	r18, 0x08	; 8
    186c:	51 f1       	breq	.+84     	; 0x18c2 <__ultoa_invert+0x5c>
    186e:	20 31       	cpi	r18, 0x10	; 16
    1870:	81 f1       	breq	.+96     	; 0x18d2 <__ultoa_invert+0x6c>
    1872:	e8 94       	clt
    1874:	6f 93       	push	r22
    1876:	6e 7f       	andi	r22, 0xFE	; 254
    1878:	6e 5f       	subi	r22, 0xFE	; 254
    187a:	7f 4f       	sbci	r23, 0xFF	; 255
    187c:	8f 4f       	sbci	r24, 0xFF	; 255
    187e:	9f 4f       	sbci	r25, 0xFF	; 255
    1880:	af 4f       	sbci	r26, 0xFF	; 255
    1882:	b1 e0       	ldi	r27, 0x01	; 1
    1884:	3e d0       	rcall	.+124    	; 0x1902 <__ultoa_invert+0x9c>
    1886:	b4 e0       	ldi	r27, 0x04	; 4
    1888:	3c d0       	rcall	.+120    	; 0x1902 <__ultoa_invert+0x9c>
    188a:	67 0f       	add	r22, r23
    188c:	78 1f       	adc	r23, r24
    188e:	89 1f       	adc	r24, r25
    1890:	9a 1f       	adc	r25, r26
    1892:	a1 1d       	adc	r26, r1
    1894:	68 0f       	add	r22, r24
    1896:	79 1f       	adc	r23, r25
    1898:	8a 1f       	adc	r24, r26
    189a:	91 1d       	adc	r25, r1
    189c:	a1 1d       	adc	r26, r1
    189e:	6a 0f       	add	r22, r26
    18a0:	71 1d       	adc	r23, r1
    18a2:	81 1d       	adc	r24, r1
    18a4:	91 1d       	adc	r25, r1
    18a6:	a1 1d       	adc	r26, r1
    18a8:	20 d0       	rcall	.+64     	; 0x18ea <__ultoa_invert+0x84>
    18aa:	09 f4       	brne	.+2      	; 0x18ae <__ultoa_invert+0x48>
    18ac:	68 94       	set
    18ae:	3f 91       	pop	r19
    18b0:	2a e0       	ldi	r18, 0x0A	; 10
    18b2:	26 9f       	mul	r18, r22
    18b4:	11 24       	eor	r1, r1
    18b6:	30 19       	sub	r19, r0
    18b8:	30 5d       	subi	r19, 0xD0	; 208
    18ba:	31 93       	st	Z+, r19
    18bc:	de f6       	brtc	.-74     	; 0x1874 <__ultoa_invert+0xe>
    18be:	cf 01       	movw	r24, r30
    18c0:	08 95       	ret
    18c2:	46 2f       	mov	r20, r22
    18c4:	47 70       	andi	r20, 0x07	; 7
    18c6:	40 5d       	subi	r20, 0xD0	; 208
    18c8:	41 93       	st	Z+, r20
    18ca:	b3 e0       	ldi	r27, 0x03	; 3
    18cc:	0f d0       	rcall	.+30     	; 0x18ec <__ultoa_invert+0x86>
    18ce:	c9 f7       	brne	.-14     	; 0x18c2 <__ultoa_invert+0x5c>
    18d0:	f6 cf       	rjmp	.-20     	; 0x18be <__ultoa_invert+0x58>
    18d2:	46 2f       	mov	r20, r22
    18d4:	4f 70       	andi	r20, 0x0F	; 15
    18d6:	40 5d       	subi	r20, 0xD0	; 208
    18d8:	4a 33       	cpi	r20, 0x3A	; 58
    18da:	18 f0       	brcs	.+6      	; 0x18e2 <__ultoa_invert+0x7c>
    18dc:	49 5d       	subi	r20, 0xD9	; 217
    18de:	31 fd       	sbrc	r19, 1
    18e0:	40 52       	subi	r20, 0x20	; 32
    18e2:	41 93       	st	Z+, r20
    18e4:	02 d0       	rcall	.+4      	; 0x18ea <__ultoa_invert+0x84>
    18e6:	a9 f7       	brne	.-22     	; 0x18d2 <__ultoa_invert+0x6c>
    18e8:	ea cf       	rjmp	.-44     	; 0x18be <__ultoa_invert+0x58>
    18ea:	b4 e0       	ldi	r27, 0x04	; 4
    18ec:	a6 95       	lsr	r26
    18ee:	97 95       	ror	r25
    18f0:	87 95       	ror	r24
    18f2:	77 95       	ror	r23
    18f4:	67 95       	ror	r22
    18f6:	ba 95       	dec	r27
    18f8:	c9 f7       	brne	.-14     	; 0x18ec <__ultoa_invert+0x86>
    18fa:	00 97       	sbiw	r24, 0x00	; 0
    18fc:	61 05       	cpc	r22, r1
    18fe:	71 05       	cpc	r23, r1
    1900:	08 95       	ret
    1902:	9b 01       	movw	r18, r22
    1904:	ac 01       	movw	r20, r24
    1906:	0a 2e       	mov	r0, r26
    1908:	06 94       	lsr	r0
    190a:	57 95       	ror	r21
    190c:	47 95       	ror	r20
    190e:	37 95       	ror	r19
    1910:	27 95       	ror	r18
    1912:	ba 95       	dec	r27
    1914:	c9 f7       	brne	.-14     	; 0x1908 <__ultoa_invert+0xa2>
    1916:	62 0f       	add	r22, r18
    1918:	73 1f       	adc	r23, r19
    191a:	84 1f       	adc	r24, r20
    191c:	95 1f       	adc	r25, r21
    191e:	a0 1d       	adc	r26, r0
    1920:	08 95       	ret

00001922 <__prologue_saves__>:
    1922:	2f 92       	push	r2
    1924:	3f 92       	push	r3
    1926:	4f 92       	push	r4
    1928:	5f 92       	push	r5
    192a:	6f 92       	push	r6
    192c:	7f 92       	push	r7
    192e:	8f 92       	push	r8
    1930:	9f 92       	push	r9
    1932:	af 92       	push	r10
    1934:	bf 92       	push	r11
    1936:	cf 92       	push	r12
    1938:	df 92       	push	r13
    193a:	ef 92       	push	r14
    193c:	ff 92       	push	r15
    193e:	0f 93       	push	r16
    1940:	1f 93       	push	r17
    1942:	cf 93       	push	r28
    1944:	df 93       	push	r29
    1946:	cd b7       	in	r28, 0x3d	; 61
    1948:	de b7       	in	r29, 0x3e	; 62
    194a:	ca 1b       	sub	r28, r26
    194c:	db 0b       	sbc	r29, r27
    194e:	0f b6       	in	r0, 0x3f	; 63
    1950:	f8 94       	cli
    1952:	de bf       	out	0x3e, r29	; 62
    1954:	0f be       	out	0x3f, r0	; 63
    1956:	cd bf       	out	0x3d, r28	; 61
    1958:	09 94       	ijmp

0000195a <__epilogue_restores__>:
    195a:	2a 88       	ldd	r2, Y+18	; 0x12
    195c:	39 88       	ldd	r3, Y+17	; 0x11
    195e:	48 88       	ldd	r4, Y+16	; 0x10
    1960:	5f 84       	ldd	r5, Y+15	; 0x0f
    1962:	6e 84       	ldd	r6, Y+14	; 0x0e
    1964:	7d 84       	ldd	r7, Y+13	; 0x0d
    1966:	8c 84       	ldd	r8, Y+12	; 0x0c
    1968:	9b 84       	ldd	r9, Y+11	; 0x0b
    196a:	aa 84       	ldd	r10, Y+10	; 0x0a
    196c:	b9 84       	ldd	r11, Y+9	; 0x09
    196e:	c8 84       	ldd	r12, Y+8	; 0x08
    1970:	df 80       	ldd	r13, Y+7	; 0x07
    1972:	ee 80       	ldd	r14, Y+6	; 0x06
    1974:	fd 80       	ldd	r15, Y+5	; 0x05
    1976:	0c 81       	ldd	r16, Y+4	; 0x04
    1978:	1b 81       	ldd	r17, Y+3	; 0x03
    197a:	aa 81       	ldd	r26, Y+2	; 0x02
    197c:	b9 81       	ldd	r27, Y+1	; 0x01
    197e:	ce 0f       	add	r28, r30
    1980:	d1 1d       	adc	r29, r1
    1982:	0f b6       	in	r0, 0x3f	; 63
    1984:	f8 94       	cli
    1986:	de bf       	out	0x3e, r29	; 62
    1988:	0f be       	out	0x3f, r0	; 63
    198a:	cd bf       	out	0x3d, r28	; 61
    198c:	ed 01       	movw	r28, r26
    198e:	08 95       	ret

00001990 <_exit>:
    1990:	f8 94       	cli

00001992 <__stop_program>:
    1992:	ff cf       	rjmp	.-2      	; 0x1992 <__stop_program>
